Certificate:
    Data:
        Version: 3 (0x2)
        Serial Number:
            28:b2:3e:36:7f:58:a1:b0:16:b0:24:3d:03:4a:a3:1f
        Signature Algorithm: sha256WithRSAEncryption
        Issuer: CN=VPN
        Validity
            Not Before: May 31 15:59:23 2025 GMT
            Not After : Sep  3 15:59:23 2027 GMT
        Subject: CN=ale
        Subject Public Key Info:
            Public Key Algorithm: rsaEncryption
                Public-Key: (2048 bit)
                Modulus:
                    00:bc:69:62:75:93:c3:93:99:b9:54:82:45:3f:dc:
                    f5:8a:3f:e1:01:4c:de:79:eb:f5:b4:e0:46:01:1f:
                    23:65:4c:7b:f9:90:02:64:98:df:41:5b:eb:35:2f:
                    3d:c4:0a:83:7c:b0:cf:7d:5a:ae:82:d5:0f:ca:f1:
                    13:3f:72:8d:71:c6:23:17:da:b8:67:46:99:13:f9:
                    1e:d3:c7:0e:64:d9:a7:e2:1b:67:79:c3:dd:d3:de:
                    93:13:56:29:18:39:d7:e3:5d:42:82:6c:82:8d:0c:
                    48:ca:15:66:d4:c9:e7:d4:09:5f:b3:dc:7c:df:b5:
                    ca:5b:ad:cc:ec:ee:e2:d4:5b:5a:c7:1a:69:70:77:
                    0e:40:87:b7:50:66:c4:38:6b:21:d1:93:8f:58:12:
                    bd:6f:91:6e:db:b8:a6:29:36:33:7a:cb:02:3a:94:
                    a4:6d:b6:08:ea:44:09:ca:ce:71:71:0c:ec:a7:31:
                    6d:4b:62:0a:1f:56:19:4c:bc:f0:b7:c0:0b:19:50:
                    1c:62:d1:bf:3f:1c:31:43:14:c2:32:e7:ee:3e:11:
                    72:ca:9d:87:96:38:c6:12:f4:30:86:01:81:18:59:
                    c1:9a:3a:fb:47:3c:3e:29:dd:25:7c:1b:21:4f:08:
                    e5:97:62:d2:3c:b5:8b:a9:d3:e0:84:c2:62:95:b3:
                    4c:d9
                Exponent: 65537 (0x10001)
        X509v3 extensions:
            X509v3 Basic Constraints: 
                CA:FALSE
            X509v3 Subject Key Identifier: 
                2B:A6:1B:67:2B:E8:B2:06:A1:A0:26:4D:5D:72:0A:27:17:06:EC:52
            X509v3 Authority Key Identifier: 
                keyid:6C:F9:40:08:C6:69:0D:10:EE:67:6D:D2:22:5C:8D:39:47:15:37:AA
                DirName:/CN=VPN
                serial:10:2D:56:4C:3D:2C:3B:2F:17:E2:13:27:B3:D6:ED:A0:8F:55:EB:78
            X509v3 Extended Key Usage: 
                TLS Web Client Authentication
            X509v3 Key Usage: 
                Digital Signature
    Signature Algorithm: sha256WithRSAEncryption
    Signature Value:
        46:74:91:e3:02:86:ad:cc:37:2f:19:91:29:60:47:04:ef:18:
        3b:a9:78:37:39:e3:b6:72:68:1b:61:e7:9c:91:54:53:b4:be:
        22:68:5c:14:46:b0:97:2f:a7:9f:2f:40:8c:81:01:7c:eb:e5:
        21:b0:f8:e2:3e:2d:ef:f6:09:fa:9f:c1:b2:64:50:4c:a3:bf:
        91:18:5f:8a:73:a9:e2:cb:02:7e:45:3e:b7:6e:66:1f:08:c1:
        ba:ca:4a:b6:8c:3f:5f:b9:7b:a2:3d:89:15:4f:04:4e:42:ae:
        1c:d5:46:77:7c:18:25:08:28:5d:fb:8f:52:ed:5f:54:d3:e2:
        00:d4:8f:a5:88:b3:59:cf:fd:ec:f2:de:92:85:45:da:68:06:
        99:81:dc:30:20:43:fa:f3:3f:5b:bf:8c:15:96:99:00:42:f9:
        61:b7:26:95:f5:3f:20:6a:60:d7:9d:47:b5:ac:86:e6:68:96:
        8b:47:08:c6:be:e6:55:cc:82:bc:0d:5c:b9:d0:e0:4a:26:c4:
        f4:48:9e:37:0b:0c:e5:11:13:aa:9d:d6:7b:b5:29:2f:2a:c0:
        c0:d3:a3:a6:c8:79:fc:8e:cc:06:19:99:c4:87:f1:48:c7:d5:
        e9:84:45:1a:30:ee:81:8d:de:6d:3b:38:a3:13:d0:81:7f:7f:
        e0:10:18:f6
-----BEGIN CERTIFICATE-----
MIIDQTCCAimgAwIBAgIQKLI+Nn9YobAWsCQ9A0qjHzANBgkqhkiG9w0BAQsFADAO
MQwwCgYDVQQDDANWUE4wHhcNMjUwNTMxMTU1OTIzWhcNMjcwOTAzMTU1OTIzWjAO
MQwwCgYDVQQDDANhbGUwggEiMA0GCSqGSIb3DQEBAQUAA4IBDwAwggEKAoIBAQC8
aWJ1k8OTmblUgkU/3PWKP+EBTN556/W04EYBHyNlTHv5kAJkmN9BW+s1Lz3ECoN8
sM99Wq6C1Q/K8RM/co1xxiMX2rhnRpkT+R7Txw5k2afiG2d5w93T3pMTVikYOdfj
XUKCbIKNDEjKFWbUyefUCV+z3Hzftcpbrczs7uLUW1rHGmlwdw5Ah7dQZsQ4ayHR
k49YEr1vkW7buKYpNjN6ywI6lKRttgjqRAnKznFxDOynMW1LYgofVhlMvPC3wAsZ
UBxi0b8/HDFDFMIy5+4+EXLKnYeWOMYS9DCGAYEYWcGaOvtHPD4p3SV8GyFPCOWX
YtI8tYup0+CEwmKVs0zZAgMBAAGjgZowgZcwCQYDVR0TBAIwADAdBgNVHQ4EFgQU
K6YbZyvosgahoCZNXXIKJxcG7FIwSQYDVR0jBEIwQIAUbPlACMZpDRDuZ23SIlyN
OUcVN6qhEqQQMA4xDDAKBgNVBAMMA1ZQToIUEC1WTD0sOy8X4hMns9btoI9V63gw
EwYDVR0lBAwwCgYIKwYBBQUHAwIwCwYDVR0PBAQDAgeAMA0GCSqGSIb3DQEBCwUA
A4IBAQBGdJHjAoatzDcvGZEpYEcE7xg7qXg3OeO2cmgbYeeckVRTtL4iaFwURrCX
L6efL0CMgQF86+UhsPjiPi3v9gn6n8GyZFBMo7+RGF+Kc6niywJ+RT63bmYfCMG6
ykq2jD9fuXuiPYkVTwROQq4c1UZ3fBglCChd+49S7V9U0+IA1I+liLNZz/3s8t6S
hUXaaAaZgdwwIEP68z9bv4wVlpkAQvlhtyaV9T8gamDXnUe1rIbmaJaLRwjGvuZV
zIK8DVy50OBKJsT0SJ43CwzlEROqndZ7tSkvKsDA06OmyHn8jswGGZnEh/FIx9Xp
hEUaMO6Bjd5tOzijE9CBf3/gEBj2
-----END CERTIFICATE-----
