Certificate:
    Data:
        Version: 3 (0x2)
        Serial Number:
            55:6d:6a:63:56:83:b5:87:b9:2f:65:2f:e5:da:b4:c3
        Signature Algorithm: sha256WithRSAEncryption
        Issuer: CN=VPN
        Validity
            Not Before: Jun  7 11:05:28 2025 GMT
            Not After : Sep 10 11:05:28 2027 GMT
        Subject: CN=koka
        Subject Public Key Info:
            Public Key Algorithm: rsaEncryption
                Public-Key: (2048 bit)
                Modulus:
                    00:a5:c8:c5:b2:5b:57:2c:e1:fe:ab:ed:f5:83:02:
                    5d:74:d1:b6:5c:09:fa:66:73:e5:7f:7f:31:6e:13:
                    95:3e:a1:1e:9c:01:81:0b:ef:fe:68:44:b5:92:44:
                    49:da:ea:f7:34:ea:97:38:62:e0:eb:4a:32:3b:fc:
                    69:2a:1c:4e:c5:73:a1:bd:86:de:ba:da:85:31:5c:
                    12:71:79:6f:78:1a:b8:8d:bb:e7:34:f0:f4:e0:76:
                    b7:8c:a3:1a:18:a2:b5:9e:fc:90:b4:3b:c5:be:40:
                    a8:73:0a:dc:83:24:e3:ec:71:f7:36:3b:5c:05:73:
                    ac:1d:26:69:84:a2:01:13:22:98:6d:48:28:ce:7d:
                    f3:45:de:4f:58:27:33:fa:1d:50:cd:e7:01:c2:51:
                    9b:c3:20:42:ef:4c:27:61:18:df:bb:36:a2:8e:cf:
                    ce:b9:89:5d:a7:64:7e:c5:b9:85:1a:43:86:25:a4:
                    89:48:f2:af:e6:ca:35:0f:8b:07:8e:22:80:a6:17:
                    e0:b5:09:33:06:54:1e:95:f6:fe:cf:ad:6e:e6:c5:
                    85:ee:71:10:6c:c6:c0:10:9a:cf:97:96:99:9a:90:
                    65:b2:ea:45:ef:2b:1e:53:44:e4:b2:d1:86:94:3a:
                    03:fa:55:60:22:64:87:b7:eb:43:b9:95:d9:eb:c9:
                    2b:75
                Exponent: 65537 (0x10001)
        X509v3 extensions:
            X509v3 Basic Constraints: 
                CA:FALSE
            X509v3 Subject Key Identifier: 
                BB:50:24:F1:96:73:45:41:9E:AF:9F:D7:5A:AB:28:B1:70:6F:FF:57
            X509v3 Authority Key Identifier: 
                keyid:6C:F9:40:08:C6:69:0D:10:EE:67:6D:D2:22:5C:8D:39:47:15:37:AA
                DirName:/CN=VPN
                serial:10:2D:56:4C:3D:2C:3B:2F:17:E2:13:27:B3:D6:ED:A0:8F:55:EB:78
            X509v3 Extended Key Usage: 
                TLS Web Client Authentication
            X509v3 Key Usage: 
                Digital Signature
    Signature Algorithm: sha256WithRSAEncryption
    Signature Value:
        90:c3:c0:a0:7e:60:8c:36:2e:d0:50:80:45:d6:45:4e:cc:c5:
        5e:00:88:16:76:11:a5:e1:d1:39:b7:5a:34:65:71:7e:4f:5b:
        9c:be:89:a6:ef:97:cd:e3:d8:8f:78:4b:59:eb:4d:57:66:dd:
        14:66:3e:14:81:aa:fe:56:53:61:19:cb:ea:38:c1:d1:73:6e:
        b5:82:b3:92:fd:da:03:79:d1:20:2a:67:fd:6a:3b:d9:a3:a7:
        10:32:2a:82:b1:08:21:c6:18:51:ae:7d:9b:3c:6f:c4:0e:2a:
        dd:32:d4:22:40:52:1f:d5:36:c8:e0:a5:3c:3d:eb:48:d4:a8:
        2b:37:5f:cd:3b:09:c2:0e:d0:d3:9b:d8:85:80:24:f8:61:2c:
        3e:f4:77:35:d0:94:9f:cc:a9:03:f2:23:4a:ac:1e:2c:72:e7:
        e3:dc:39:ff:be:4f:7c:85:fc:a8:cd:bb:28:78:d0:88:11:1f:
        81:0e:4b:36:ad:ce:59:15:13:93:99:ac:96:b7:ec:23:04:fb:
        23:33:a3:61:14:51:35:de:b3:10:7d:1c:e2:48:78:47:e1:2c:
        40:da:4c:04:57:60:92:41:a6:f4:1a:4a:37:e2:91:a6:52:6f:
        0c:c9:b1:10:0a:59:65:52:f8:8c:3a:f9:74:5a:ec:7d:a2:c1:
        24:a4:7d:53
-----BEGIN CERTIFICATE-----
MIIDQjCCAiqgAwIBAgIQVW1qY1aDtYe5L2Uv5dq0wzANBgkqhkiG9w0BAQsFADAO
MQwwCgYDVQQDDANWUE4wHhcNMjUwNjA3MTEwNTI4WhcNMjcwOTEwMTEwNTI4WjAP
MQ0wCwYDVQQDDARrb2thMIIBIjANBgkqhkiG9w0BAQEFAAOCAQ8AMIIBCgKCAQEA
pcjFsltXLOH+q+31gwJddNG2XAn6ZnPlf38xbhOVPqEenAGBC+/+aES1kkRJ2ur3
NOqXOGLg60oyO/xpKhxOxXOhvYbeutqFMVwScXlveBq4jbvnNPD04Ha3jKMaGKK1
nvyQtDvFvkCocwrcgyTj7HH3NjtcBXOsHSZphKIBEyKYbUgozn3zRd5PWCcz+h1Q
zecBwlGbwyBC70wnYRjfuzaijs/OuYldp2R+xbmFGkOGJaSJSPKv5so1D4sHjiKA
phfgtQkzBlQelfb+z61u5sWF7nEQbMbAEJrPl5aZmpBlsupF7yseU0TkstGGlDoD
+lVgImSHt+tDuZXZ68krdQIDAQABo4GaMIGXMAkGA1UdEwQCMAAwHQYDVR0OBBYE
FLtQJPGWc0VBnq+f11qrKLFwb/9XMEkGA1UdIwRCMECAFGz5QAjGaQ0Q7mdt0iJc
jTlHFTeqoRKkEDAOMQwwCgYDVQQDDANWUE6CFBAtVkw9LDsvF+ITJ7PW7aCPVet4
MBMGA1UdJQQMMAoGCCsGAQUFBwMCMAsGA1UdDwQEAwIHgDANBgkqhkiG9w0BAQsF
AAOCAQEAkMPAoH5gjDYu0FCARdZFTszFXgCIFnYRpeHRObdaNGVxfk9bnL6Jpu+X
zePYj3hLWetNV2bdFGY+FIGq/lZTYRnL6jjB0XNutYKzkv3aA3nRICpn/Wo72aOn
EDIqgrEIIcYYUa59mzxvxA4q3TLUIkBSH9U2yOClPD3rSNSoKzdfzTsJwg7Q05vY
hYAk+GEsPvR3NdCUn8ypA/IjSqweLHLn49w5/75PfIX8qM27KHjQiBEfgQ5LNq3O
WRUTk5mslrfsIwT7IzOjYRRRNd6zEH0c4kh4R+EsQNpMBFdgkkGm9BpKN+KRplJv
DMmxEApZZVL4jDr5dFrsfaLBJKR9Uw==
-----END CERTIFICATE-----
