Certificate:
    Data:
        Version: 3 (0x2)
        Serial Number:
            5d:83:e5:65:b1:a0:2f:6a:b8:6a:1d:7e:e0:1a:f1:f5
        Signature Algorithm: sha256WithRSAEncryption
        Issuer: CN=VPN
        Validity
            Not Before: Jun  4 09:36:24 2025 GMT
            Not After : Sep  7 09:36:24 2027 GMT
        Subject: CN=prueba4
        Subject Public Key Info:
            Public Key Algorithm: rsaEncryption
                Public-Key: (2048 bit)
                Modulus:
                    00:bc:35:4f:8d:42:2a:1b:a1:bf:b1:fc:ae:fd:d2:
                    c9:9e:98:86:4f:c2:8d:30:cb:ba:45:90:2d:98:4f:
                    ce:64:e1:43:13:72:69:ca:9e:64:75:92:3e:98:25:
                    46:a5:d2:74:bb:6d:3a:5e:d6:12:9a:b4:9f:3b:e3:
                    42:c2:8e:a4:e9:d7:7f:37:aa:5b:7d:48:13:70:c6:
                    83:91:b4:b1:21:83:d5:8d:89:d0:13:35:45:eb:cf:
                    14:83:3f:51:9c:ba:d9:29:d5:8e:68:93:78:3f:35:
                    da:0d:90:9e:8b:24:85:3a:59:7f:e6:b4:18:43:9f:
                    d7:6f:ea:fc:5e:cf:f0:ee:fe:f0:eb:cf:7a:cd:92:
                    74:a2:78:82:4c:21:db:ec:c0:69:58:c0:0f:bb:44:
                    4b:d7:c3:11:21:b5:0a:41:2b:77:d8:5a:31:cc:7a:
                    9a:69:91:00:8c:5f:1a:1c:14:36:81:40:86:b7:7d:
                    75:cd:c2:29:b7:e8:ea:5a:2d:8b:de:9f:2b:e6:41:
                    fd:d4:fe:f7:c3:f2:3b:0d:d3:b9:43:87:ea:49:26:
                    12:f4:ec:71:2d:b9:f7:ef:a5:f0:e5:ac:c7:7b:1c:
                    41:54:b0:ef:20:93:f1:2a:74:4c:87:75:76:26:6b:
                    e1:fe:36:dd:f4:3c:64:23:55:84:f9:5b:66:06:b6:
                    8f:0f
                Exponent: 65537 (0x10001)
        X509v3 extensions:
            X509v3 Basic Constraints: 
                CA:FALSE
            X509v3 Subject Key Identifier: 
                50:50:EA:C8:CC:ED:71:6D:4E:13:E9:ED:DD:11:D1:B1:72:97:1B:37
            X509v3 Authority Key Identifier: 
                keyid:6C:F9:40:08:C6:69:0D:10:EE:67:6D:D2:22:5C:8D:39:47:15:37:AA
                DirName:/CN=VPN
                serial:10:2D:56:4C:3D:2C:3B:2F:17:E2:13:27:B3:D6:ED:A0:8F:55:EB:78
            X509v3 Extended Key Usage: 
                TLS Web Client Authentication
            X509v3 Key Usage: 
                Digital Signature
    Signature Algorithm: sha256WithRSAEncryption
    Signature Value:
        41:73:b0:ad:2c:68:b8:3f:f0:79:3e:b5:a6:88:d0:17:31:af:
        d2:f2:d4:78:68:b3:4a:17:7f:f8:6e:f7:fe:a7:64:08:9f:e4:
        96:e2:34:cb:25:ff:03:ab:95:97:d8:27:6b:89:ba:78:cf:74:
        1d:fa:e3:33:2f:9a:9a:b3:84:8e:fa:13:67:9a:6f:63:66:0d:
        cc:6f:fe:b9:73:98:ed:ec:bc:85:59:9c:b0:8b:18:9d:de:40:
        ac:ec:2b:98:4e:d4:98:8d:cf:ee:81:c0:38:50:86:d6:2e:67:
        d7:80:08:5e:16:e5:0d:ab:6b:d3:df:fa:ba:cb:62:5e:a6:52:
        56:4a:0a:74:a9:9b:17:d4:3d:79:89:21:b3:9b:1d:00:3f:51:
        a9:8f:ed:f4:cd:d4:bb:7f:fa:81:15:f6:61:ab:ef:a0:76:8a:
        47:93:cf:bd:d3:6d:8b:e4:70:d2:1f:70:dd:49:1f:a1:ba:6d:
        92:d1:df:b9:a6:b0:3b:4a:c3:17:27:e8:b1:4f:53:f3:c3:55:
        94:a5:be:7b:0a:d2:ba:1c:31:ee:8b:29:db:09:69:bd:3a:1f:
        5e:ab:bb:8f:18:0e:3d:8e:7e:1e:a0:c7:27:7e:5a:b7:91:3f:
        e5:2f:d1:43:c8:b4:ae:99:55:88:64:bc:29:68:aa:40:20:4d:
        ae:fc:34:b9
-----BEGIN CERTIFICATE-----
MIIDRTCCAi2gAwIBAgIQXYPlZbGgL2q4ah1+4Brx9TANBgkqhkiG9w0BAQsFADAO
MQwwCgYDVQQDDANWUE4wHhcNMjUwNjA0MDkzNjI0WhcNMjcwOTA3MDkzNjI0WjAS
MRAwDgYDVQQDDAdwcnVlYmE0MIIBIjANBgkqhkiG9w0BAQEFAAOCAQ8AMIIBCgKC
AQEAvDVPjUIqG6G/sfyu/dLJnpiGT8KNMMu6RZAtmE/OZOFDE3Jpyp5kdZI+mCVG
pdJ0u206XtYSmrSfO+NCwo6k6dd/N6pbfUgTcMaDkbSxIYPVjYnQEzVF688Ugz9R
nLrZKdWOaJN4PzXaDZCeiySFOll/5rQYQ5/Xb+r8Xs/w7v7w6896zZJ0oniCTCHb
7MBpWMAPu0RL18MRIbUKQSt32FoxzHqaaZEAjF8aHBQ2gUCGt311zcIpt+jqWi2L
3p8r5kH91P73w/I7DdO5Q4fqSSYS9OxxLbn376Xw5azHexxBVLDvIJPxKnRMh3V2
Jmvh/jbd9DxkI1WE+VtmBraPDwIDAQABo4GaMIGXMAkGA1UdEwQCMAAwHQYDVR0O
BBYEFFBQ6sjM7XFtThPp7d0R0bFylxs3MEkGA1UdIwRCMECAFGz5QAjGaQ0Q7mdt
0iJcjTlHFTeqoRKkEDAOMQwwCgYDVQQDDANWUE6CFBAtVkw9LDsvF+ITJ7PW7aCP
Vet4MBMGA1UdJQQMMAoGCCsGAQUFBwMCMAsGA1UdDwQEAwIHgDANBgkqhkiG9w0B
AQsFAAOCAQEAQXOwrSxouD/weT61pojQFzGv0vLUeGizShd/+G73/qdkCJ/kluI0
yyX/A6uVl9gna4m6eM90HfrjMy+amrOEjvoTZ5pvY2YNzG/+uXOY7ey8hVmcsIsY
nd5ArOwrmE7UmI3P7oHAOFCG1i5n14AIXhblDatr09/6ustiXqZSVkoKdKmbF9Q9
eYkhs5sdAD9RqY/t9M3Uu3/6gRX2YavvoHaKR5PPvdNti+Rw0h9w3UkfobptktHf
uaawO0rDFyfosU9T88NVlKW+ewrSuhwx7osp2wlpvTofXqu7jxgOPY5+HqDHJ35a
t5E/5S/RQ8i0rplViGS8KWiqQCBNrvw0uQ==
-----END CERTIFICATE-----
