Certificate:
    Data:
        Version: 3 (0x2)
        Serial Number:
            6f:5a:be:44:14:02:42:1e:c3:7b:85:aa:22:73:42:ae
        Signature Algorithm: sha256WithRSAEncryption
        Issuer: CN=VPN
        Validity
            Not Before: Jun  8 17:02:27 2025 GMT
            Not After : Sep 11 17:02:27 2027 GMT
        Subject: CN=nicolasgq333@gmail.com
        Subject Public Key Info:
            Public Key Algorithm: rsaEncryption
                Public-Key: (2048 bit)
                Modulus:
                    00:bb:09:a4:e4:f0:ab:5d:83:4a:69:2d:13:b0:85:
                    13:ec:2a:cc:d4:ee:d5:0b:14:74:83:d4:66:0b:bc:
                    5c:9b:00:1e:8d:c5:f0:d5:63:6f:ae:56:25:0f:8d:
                    ad:78:10:6b:f9:75:9f:0f:40:4b:6b:e4:0b:2f:64:
                    68:90:3b:ae:d7:5f:a9:02:df:a4:88:bf:a2:fe:e9:
                    da:75:d8:23:d4:97:45:be:e1:4f:6e:b5:2f:ab:76:
                    5a:97:b4:16:7b:b5:c5:42:47:c6:a6:91:20:59:94:
                    3e:db:2e:67:af:41:be:31:51:3f:03:d4:13:47:b1:
                    f9:27:60:7d:a8:50:f3:d0:f0:f7:85:97:30:fc:11:
                    6f:0e:4d:97:76:49:2d:70:c1:1e:4e:4e:67:07:40:
                    c5:c0:26:d3:56:08:7f:6f:ea:79:69:d8:57:8b:8d:
                    a8:8a:d3:9f:42:dc:20:42:50:16:b3:c0:32:a7:8f:
                    a7:80:a4:04:39:1f:42:5f:c8:e1:c7:ad:4f:83:3b:
                    3e:32:82:44:78:6a:02:2e:20:bf:bb:18:c3:96:e8:
                    08:83:c6:73:37:7d:1e:03:17:10:b3:6f:6f:02:1f:
                    a5:70:dd:b3:01:64:e8:94:17:4f:c2:e5:3e:c7:b9:
                    d4:ab:87:f5:47:ae:db:6f:20:bc:c8:3e:71:da:a0:
                    50:bd
                Exponent: 65537 (0x10001)
        X509v3 extensions:
            X509v3 Basic Constraints: 
                CA:FALSE
            X509v3 Subject Key Identifier: 
                FC:A3:BB:B3:DA:D6:FB:33:6D:BD:19:44:E6:6C:63:AC:6F:44:CE:E0
            X509v3 Authority Key Identifier: 
                keyid:6C:F9:40:08:C6:69:0D:10:EE:67:6D:D2:22:5C:8D:39:47:15:37:AA
                DirName:/CN=VPN
                serial:10:2D:56:4C:3D:2C:3B:2F:17:E2:13:27:B3:D6:ED:A0:8F:55:EB:78
            X509v3 Extended Key Usage: 
                TLS Web Client Authentication
            X509v3 Key Usage: 
                Digital Signature
    Signature Algorithm: sha256WithRSAEncryption
    Signature Value:
        2e:b8:69:50:60:5b:1e:99:4d:2f:1d:a2:6e:3e:a2:38:ab:02:
        30:f5:53:5f:61:90:1c:85:b0:e3:b2:90:57:22:80:27:bc:fd:
        36:22:e6:d7:8b:85:70:22:2f:3d:24:fe:41:b8:1a:c5:36:e7:
        f7:4d:da:83:7a:14:e9:61:f9:b9:4c:e4:f3:8d:17:e4:87:5a:
        ab:c2:65:2a:f4:33:47:5d:db:dc:9a:46:11:71:db:7e:71:11:
        31:9b:42:cb:9d:7f:dd:c8:04:4f:fe:53:57:ab:62:ab:82:6d:
        d5:48:35:83:16:8f:f9:64:6d:3b:66:25:0a:e9:07:e7:f7:d8:
        18:c0:a0:08:aa:87:1a:ad:b4:1c:e7:86:f1:12:8f:a4:bd:c3:
        69:33:ba:f9:00:82:62:ee:4f:c5:74:1e:7f:02:a3:17:44:f8:
        25:4b:75:2f:fa:b0:c2:2c:91:29:0d:9f:ee:9d:2e:ac:06:5a:
        73:d1:6f:4e:4f:5d:96:84:41:b2:30:ce:5d:3a:01:09:90:67:
        9d:cf:59:94:76:7c:94:48:ea:5f:3c:37:e9:9d:63:26:bb:e0:
        70:7d:4f:15:a1:f9:67:98:30:68:84:e9:8b:be:b4:cb:ad:08:
        a9:c9:c3:a5:77:b3:cf:90:3b:9b:38:5d:87:e9:8d:06:95:e7:
        83:62:1d:43
-----BEGIN CERTIFICATE-----
MIIDVDCCAjygAwIBAgIQb1q+RBQCQh7De4WqInNCrjANBgkqhkiG9w0BAQsFADAO
MQwwCgYDVQQDDANWUE4wHhcNMjUwNjA4MTcwMjI3WhcNMjcwOTExMTcwMjI3WjAh
MR8wHQYDVQQDDBZuaWNvbGFzZ3EzMzNAZ21haWwuY29tMIIBIjANBgkqhkiG9w0B
AQEFAAOCAQ8AMIIBCgKCAQEAuwmk5PCrXYNKaS0TsIUT7CrM1O7VCxR0g9RmC7xc
mwAejcXw1WNvrlYlD42teBBr+XWfD0BLa+QLL2RokDuu11+pAt+kiL+i/unaddgj
1JdFvuFPbrUvq3Zal7QWe7XFQkfGppEgWZQ+2y5nr0G+MVE/A9QTR7H5J2B9qFDz
0PD3hZcw/BFvDk2XdkktcMEeTk5nB0DFwCbTVgh/b+p5adhXi42oitOfQtwgQlAW
s8Ayp4+ngKQEOR9CX8jhx61Pgzs+MoJEeGoCLiC/uxjDlugIg8ZzN30eAxcQs29v
Ah+lcN2zAWTolBdPwuU+x7nUq4f1R67bbyC8yD5x2qBQvQIDAQABo4GaMIGXMAkG
A1UdEwQCMAAwHQYDVR0OBBYEFPyju7Pa1vszbb0ZROZsY6xvRM7gMEkGA1UdIwRC
MECAFGz5QAjGaQ0Q7mdt0iJcjTlHFTeqoRKkEDAOMQwwCgYDVQQDDANWUE6CFBAt
Vkw9LDsvF+ITJ7PW7aCPVet4MBMGA1UdJQQMMAoGCCsGAQUFBwMCMAsGA1UdDwQE
AwIHgDANBgkqhkiG9w0BAQsFAAOCAQEALrhpUGBbHplNLx2ibj6iOKsCMPVTX2GQ
HIWw47KQVyKAJ7z9NiLm14uFcCIvPST+QbgaxTbn903ag3oU6WH5uUzk840X5Ida
q8JlKvQzR13b3JpGEXHbfnERMZtCy51/3cgET/5TV6tiq4Jt1Ug1gxaP+WRtO2Yl
CukH5/fYGMCgCKqHGq20HOeG8RKPpL3DaTO6+QCCYu5PxXQefwKjF0T4JUt1L/qw
wiyRKQ2f7p0urAZac9FvTk9dloRBsjDOXToBCZBnnc9ZlHZ8lEjqXzw36Z1jJrvg
cH1PFaH5Z5gwaITpi760y60IqcnDpXezz5A7mzhdh+mNBpXng2IdQw==
-----END CERTIFICATE-----
