Certificate:
    Data:
        Version: 3 (0x2)
        Serial Number:
            76:78:d1:67:c3:b0:89:08:20:71:bd:a5:88:42:ef:d1
        Signature Algorithm: sha256WithRSAEncryption
        Issuer: CN=VPN
        Validity
            Not Before: Jun  8 12:53:50 2025 GMT
            Not After : Sep 11 12:53:50 2027 GMT
        Subject: CN=baba
        Subject Public Key Info:
            Public Key Algorithm: rsaEncryption
                Public-Key: (2048 bit)
                Modulus:
                    00:94:28:78:a2:44:3d:ab:e9:dc:9a:3a:03:3d:55:
                    46:10:d1:20:b8:f9:e3:46:97:2d:40:45:ae:90:ef:
                    a8:28:73:36:6e:22:db:9d:00:4a:44:84:b2:7a:37:
                    94:f3:b0:62:41:66:1f:17:73:ab:d7:f5:19:91:08:
                    81:c2:b4:ee:5c:ca:a2:ca:42:04:c1:22:03:ac:b1:
                    04:bf:f7:e6:b8:d0:1c:7b:34:81:4e:4a:0a:ee:44:
                    74:93:b2:19:3e:3e:98:31:49:73:a0:23:62:0d:dc:
                    ed:97:5e:1b:d1:a3:b9:ed:8c:82:dd:28:d1:a5:b1:
                    5c:79:d0:1d:da:42:7e:17:ac:da:89:7d:0b:47:c4:
                    b9:71:5a:d8:97:be:97:65:71:8a:f8:7e:23:6e:ab:
                    e2:12:4a:7d:9e:58:d3:11:63:ab:88:83:5f:e9:f1:
                    af:03:ba:41:13:ba:45:1b:42:f6:11:7e:46:f5:b1:
                    5c:83:70:9f:e9:45:dc:f6:10:45:de:9a:80:50:f5:
                    e2:91:c1:1a:16:72:08:21:a1:e8:08:26:c1:51:d9:
                    16:90:19:b5:1b:99:1c:1d:e5:82:6f:97:9a:c2:ec:
                    0e:a6:c3:d3:a1:01:25:1c:f0:c5:33:5c:94:77:b6:
                    34:07:b1:34:11:05:62:99:9d:f1:d3:0b:e8:c3:84:
                    e4:79
                Exponent: 65537 (0x10001)
        X509v3 extensions:
            X509v3 Basic Constraints: 
                CA:FALSE
            X509v3 Subject Key Identifier: 
                B2:23:A8:96:1B:31:F3:E9:3F:10:E6:7C:23:21:68:86:9E:E3:49:7A
            X509v3 Authority Key Identifier: 
                keyid:6C:F9:40:08:C6:69:0D:10:EE:67:6D:D2:22:5C:8D:39:47:15:37:AA
                DirName:/CN=VPN
                serial:10:2D:56:4C:3D:2C:3B:2F:17:E2:13:27:B3:D6:ED:A0:8F:55:EB:78
            X509v3 Extended Key Usage: 
                TLS Web Client Authentication
            X509v3 Key Usage: 
                Digital Signature
    Signature Algorithm: sha256WithRSAEncryption
    Signature Value:
        7e:fb:b7:49:57:83:40:52:8c:9c:f4:4c:c6:d4:44:78:46:82:
        ea:f9:9e:bd:8f:4c:dd:6f:7a:ba:be:b5:e8:ff:94:df:df:c6:
        08:b6:f0:40:e8:88:3f:59:05:c5:ac:a9:10:88:1d:a8:cf:e5:
        6d:22:50:b9:46:99:4a:91:10:8d:be:ab:52:f8:ae:f1:21:b0:
        71:15:39:de:62:49:ad:13:e9:90:bd:da:ec:11:b3:f2:73:be:
        33:ee:6d:b5:17:a0:c2:65:7f:4d:8a:24:1f:3b:a7:04:b4:b2:
        ee:27:bc:49:1f:64:f2:82:f6:48:67:43:b6:35:21:53:68:78:
        54:1d:68:d7:15:bc:60:c2:e4:c0:5c:fd:c5:6e:a0:ed:26:8b:
        63:5f:9a:7d:78:1b:8e:0d:4a:6f:e7:cf:42:c1:c8:23:c7:95:
        27:6c:f4:e3:2d:8a:a4:4a:11:90:c2:da:01:bf:e3:22:9c:b8:
        35:be:d2:55:83:a7:41:9e:f0:de:94:9f:cf:b8:3a:a9:a0:62:
        29:3c:9d:8a:d7:ca:cc:67:a4:95:5f:b5:25:4b:db:66:83:30:
        89:3f:4c:7d:42:42:4e:42:23:99:53:4d:8f:90:02:d8:69:e8:
        08:2a:0c:af:1b:9f:52:eb:45:07:7e:11:d0:09:f2:9e:fd:3a:
        bb:50:33:42
-----BEGIN CERTIFICATE-----
MIIDQjCCAiqgAwIBAgIQdnjRZ8OwiQggcb2liELv0TANBgkqhkiG9w0BAQsFADAO
MQwwCgYDVQQDDANWUE4wHhcNMjUwNjA4MTI1MzUwWhcNMjcwOTExMTI1MzUwWjAP
MQ0wCwYDVQQDDARiYWJhMIIBIjANBgkqhkiG9w0BAQEFAAOCAQ8AMIIBCgKCAQEA
lCh4okQ9q+ncmjoDPVVGENEguPnjRpctQEWukO+oKHM2biLbnQBKRISyejeU87Bi
QWYfF3Or1/UZkQiBwrTuXMqiykIEwSIDrLEEv/fmuNAcezSBTkoK7kR0k7IZPj6Y
MUlzoCNiDdztl14b0aO57YyC3SjRpbFcedAd2kJ+F6zaiX0LR8S5cVrYl76XZXGK
+H4jbqviEkp9nljTEWOriINf6fGvA7pBE7pFG0L2EX5G9bFcg3Cf6UXc9hBF3pqA
UPXikcEaFnIIIaHoCCbBUdkWkBm1G5kcHeWCb5eawuwOpsPToQElHPDFM1yUd7Y0
B7E0EQVimZ3x0wvow4TkeQIDAQABo4GaMIGXMAkGA1UdEwQCMAAwHQYDVR0OBBYE
FLIjqJYbMfPpPxDmfCMhaIae40l6MEkGA1UdIwRCMECAFGz5QAjGaQ0Q7mdt0iJc
jTlHFTeqoRKkEDAOMQwwCgYDVQQDDANWUE6CFBAtVkw9LDsvF+ITJ7PW7aCPVet4
MBMGA1UdJQQMMAoGCCsGAQUFBwMCMAsGA1UdDwQEAwIHgDANBgkqhkiG9w0BAQsF
AAOCAQEAfvu3SVeDQFKMnPRMxtREeEaC6vmevY9M3W96ur616P+U39/GCLbwQOiI
P1kFxaypEIgdqM/lbSJQuUaZSpEQjb6rUviu8SGwcRU53mJJrRPpkL3a7BGz8nO+
M+5ttRegwmV/TYokHzunBLSy7ie8SR9k8oL2SGdDtjUhU2h4VB1o1xW8YMLkwFz9
xW6g7SaLY1+afXgbjg1Kb+fPQsHII8eVJ2z04y2KpEoRkMLaAb/jIpy4Nb7SVYOn
QZ7w3pSfz7g6qaBiKTyditfKzGeklV+1JUvbZoMwiT9MfUJCTkIjmVNNj5AC2Gno
CCoMrxufUutFB34R0Anynv06u1AzQg==
-----END CERTIFICATE-----
