Certificate:
    Data:
        Version: 3 (0x2)
        Serial Number:
            80:e0:3a:b3:42:a7:86:1d:dd:fc:dc:59:5b:b4:8d:4f
        Signature Algorithm: sha256WithRSAEncryption
        Issuer: CN=VPN
        Validity
            Not Before: May 13 14:31:01 2025 GMT
            Not After : Aug 16 14:31:01 2027 GMT
        Subject: CN=Nico
        Subject Public Key Info:
            Public Key Algorithm: rsaEncryption
                Public-Key: (2048 bit)
                Modulus:
                    00:c5:fa:4c:57:b5:cf:cc:f8:d6:7b:49:e3:17:47:
                    32:27:31:c2:4d:ab:06:a2:3e:d4:d9:11:90:1d:05:
                    fd:fc:28:ba:02:5d:8e:88:1f:10:2a:8e:86:62:ed:
                    cf:83:e9:f4:1a:4a:40:fc:7e:50:2a:06:9f:d9:ff:
                    b8:37:3c:66:f0:a6:67:15:c6:37:d0:fc:6e:00:7f:
                    ae:ee:6c:e7:6d:ac:14:70:34:87:68:94:00:df:c8:
                    f9:5f:7b:11:07:77:91:e1:2b:aa:a3:13:fe:e5:d8:
                    23:16:23:7a:d7:e2:e2:73:75:9a:cb:b9:c1:f7:80:
                    2d:30:19:4d:df:fb:e5:cc:7b:cd:c8:b1:fc:e7:0a:
                    90:69:ac:35:cb:42:54:dd:95:22:b4:86:d6:ca:9e:
                    d0:68:c4:ac:ef:84:86:91:3a:82:6e:5e:0b:ee:c6:
                    35:17:0e:c8:e6:1f:f3:98:bf:4c:6f:7e:f0:37:88:
                    03:0a:87:6f:0f:96:99:1b:0c:bd:8a:72:35:ba:c8:
                    94:41:8e:e0:15:c3:d5:67:fc:61:9d:e0:2d:b1:87:
                    c2:0b:f0:f4:62:0c:ae:de:03:75:ca:e2:78:3d:e4:
                    e9:9e:f6:d6:fa:4f:45:78:f3:e5:6c:ea:c3:1e:f9:
                    1c:f4:45:a1:51:18:a4:73:75:d3:87:de:1a:ea:31:
                    4e:eb
                Exponent: 65537 (0x10001)
        X509v3 extensions:
            X509v3 Basic Constraints: 
                CA:FALSE
            X509v3 Subject Key Identifier: 
                A5:35:A9:7C:C2:B6:BE:B1:A0:12:45:FF:34:E9:A9:58:8C:74:03:F3
            X509v3 Authority Key Identifier: 
                keyid:6C:F9:40:08:C6:69:0D:10:EE:67:6D:D2:22:5C:8D:39:47:15:37:AA
                DirName:/CN=VPN
                serial:10:2D:56:4C:3D:2C:3B:2F:17:E2:13:27:B3:D6:ED:A0:8F:55:EB:78
            X509v3 Extended Key Usage: 
                TLS Web Client Authentication
            X509v3 Key Usage: 
                Digital Signature
    Signature Algorithm: sha256WithRSAEncryption
    Signature Value:
        4f:f7:33:d3:b2:90:0c:02:73:cf:46:ce:fb:8d:4e:17:d4:2b:
        3e:1b:15:83:f5:b8:c4:b0:94:64:c9:4c:8c:2f:f8:d5:ec:01:
        df:04:fc:c7:50:b9:df:94:c6:a8:2b:bb:6c:93:a0:6b:9d:d3:
        c4:d0:5f:7f:6a:69:9d:57:f2:e7:19:e9:1a:18:ce:c5:c7:8d:
        70:03:86:e7:cf:f9:14:b7:a3:9f:23:ac:46:61:98:c1:6d:38:
        ea:3b:87:e9:d1:cb:cb:08:21:2e:97:66:ae:26:09:5e:13:f7:
        19:a8:1a:b0:77:63:7c:67:f7:fd:a7:6b:f5:34:46:bf:d5:aa:
        f4:51:66:ba:9b:7a:64:5c:c8:a1:81:9c:a8:5c:b8:b9:56:7b:
        83:86:a4:44:3b:98:78:e0:d4:c9:74:f9:56:01:0f:01:a5:a3:
        62:6a:22:74:60:8b:d6:85:25:e5:37:c1:ff:79:5c:0f:23:43:
        b0:3e:d7:31:af:38:52:d6:89:ae:c9:cd:35:71:ca:8a:0b:a0:
        9a:ea:a4:67:c4:fc:9a:b8:cf:6f:e6:2b:c4:3c:96:72:21:23:
        ac:d3:42:ae:61:de:6c:68:57:70:0c:07:af:95:c2:f8:8d:66:
        c3:12:ea:47:dd:26:8b:f3:1a:90:07:5a:28:0e:59:4c:09:36:
        91:f0:21:48
-----BEGIN CERTIFICATE-----
MIIDQzCCAiugAwIBAgIRAIDgOrNCp4Yd3fzcWVu0jU8wDQYJKoZIhvcNAQELBQAw
DjEMMAoGA1UEAwwDVlBOMB4XDTI1MDUxMzE0MzEwMVoXDTI3MDgxNjE0MzEwMVow
DzENMAsGA1UEAwwETmljbzCCASIwDQYJKoZIhvcNAQEBBQADggEPADCCAQoCggEB
AMX6TFe1z8z41ntJ4xdHMicxwk2rBqI+1NkRkB0F/fwougJdjogfECqOhmLtz4Pp
9BpKQPx+UCoGn9n/uDc8ZvCmZxXGN9D8bgB/ru5s522sFHA0h2iUAN/I+V97EQd3
keErqqMT/uXYIxYjetfi4nN1msu5wfeALTAZTd/75cx7zcix/OcKkGmsNctCVN2V
IrSG1sqe0GjErO+EhpE6gm5eC+7GNRcOyOYf85i/TG9+8DeIAwqHbw+WmRsMvYpy
NbrIlEGO4BXD1Wf8YZ3gLbGHwgvw9GIMrt4DdcrieD3k6Z721vpPRXjz5Wzqwx75
HPRFoVEYpHN104feGuoxTusCAwEAAaOBmjCBlzAJBgNVHRMEAjAAMB0GA1UdDgQW
BBSlNal8wra+saASRf806alYjHQD8zBJBgNVHSMEQjBAgBRs+UAIxmkNEO5nbdIi
XI05RxU3qqESpBAwDjEMMAoGA1UEAwwDVlBOghQQLVZMPSw7LxfiEyez1u2gj1Xr
eDATBgNVHSUEDDAKBggrBgEFBQcDAjALBgNVHQ8EBAMCB4AwDQYJKoZIhvcNAQEL
BQADggEBAE/3M9OykAwCc89GzvuNThfUKz4bFYP1uMSwlGTJTIwv+NXsAd8E/MdQ
ud+Uxqgru2yToGud08TQX39qaZ1X8ucZ6RoYzsXHjXADhufP+RS3o58jrEZhmMFt
OOo7h+nRy8sIIS6XZq4mCV4T9xmoGrB3Y3xn9/2na/U0Rr/VqvRRZrqbemRcyKGB
nKhcuLlWe4OGpEQ7mHjg1Ml0+VYBDwGlo2JqInRgi9aFJeU3wf95XA8jQ7A+1zGv
OFLWia7JzTVxyooLoJrqpGfE/Jq4z2/mK8Q8lnIhI6zTQq5h3mxoV3AMB6+VwviN
ZsMS6kfdJovzGpAHWigOWUwJNpHwIUg=
-----END CERTIFICATE-----
