Certificate:
    Data:
        Version: 3 (0x2)
        Serial Number:
            a9:d4:1c:6f:f6:de:e7:63:c2:34:aa:43:14:3e:57:0d
        Signature Algorithm: sha256WithRSAEncryption
        Issuer: CN=VPN
        Validity
            Not Before: Jun  2 15:47:49 2025 GMT
            Not After : Sep  5 15:47:49 2027 GMT
        Subject: CN=prueba3
        Subject Public Key Info:
            Public Key Algorithm: rsaEncryption
                Public-Key: (2048 bit)
                Modulus:
                    00:8b:49:5d:22:93:c2:7d:8f:23:cd:30:d5:a2:3a:
                    0a:ec:2e:5f:20:94:ac:75:ec:b1:3c:90:7d:25:49:
                    bb:cc:b9:62:97:86:19:52:93:e8:c9:62:3c:4c:71:
                    9c:ac:70:ae:a1:de:6d:12:99:d1:f0:5c:47:24:c3:
                    9d:91:e6:4b:71:da:73:cb:db:2a:13:c9:cc:8d:3f:
                    21:2e:f5:d4:46:11:fc:b3:4b:c2:21:aa:a5:c0:34:
                    e2:fa:fc:85:10:f3:32:69:44:7c:3e:0c:47:6f:54:
                    3b:5d:04:68:77:43:2b:78:8c:a0:a8:a2:34:21:ac:
                    1e:07:7d:9f:b7:4b:70:3c:eb:b3:d0:81:bf:65:d4:
                    72:d7:ff:15:ef:8d:fc:8d:19:f3:38:d0:14:1a:b8:
                    85:0d:c4:b2:32:eb:63:bf:65:d5:04:7b:5b:56:1c:
                    e4:f8:9c:07:14:d8:8d:5a:d2:93:4c:d9:d8:9d:d3:
                    73:9c:c4:3e:e8:5a:59:e4:c9:eb:f0:b5:e8:0d:d2:
                    73:52:82:5a:86:9a:af:1f:f6:33:ec:85:21:27:99:
                    d7:4c:a5:20:b6:32:15:0b:7d:28:a7:94:36:81:e4:
                    c4:d4:ad:76:13:ff:fb:cd:7d:33:50:14:27:89:5f:
                    40:6f:4c:89:76:29:70:fc:39:3b:c7:08:3c:91:06:
                    2b:d7
                Exponent: 65537 (0x10001)
        X509v3 extensions:
            X509v3 Basic Constraints: 
                CA:FALSE
            X509v3 Subject Key Identifier: 
                02:31:14:F2:9B:FC:48:60:B3:AC:92:46:E8:5E:69:E2:79:F5:3B:8B
            X509v3 Authority Key Identifier: 
                keyid:6C:F9:40:08:C6:69:0D:10:EE:67:6D:D2:22:5C:8D:39:47:15:37:AA
                DirName:/CN=VPN
                serial:10:2D:56:4C:3D:2C:3B:2F:17:E2:13:27:B3:D6:ED:A0:8F:55:EB:78
            X509v3 Extended Key Usage: 
                TLS Web Client Authentication
            X509v3 Key Usage: 
                Digital Signature
    Signature Algorithm: sha256WithRSAEncryption
    Signature Value:
        19:c9:31:72:ea:f6:f3:91:68:d1:35:a1:49:77:ed:5c:2d:04:
        8b:01:d4:46:e1:46:e7:1d:c9:0a:3c:5b:2e:f1:e7:16:8b:f1:
        93:54:36:6d:6a:1f:9a:bb:b3:d2:ef:1a:d4:9a:97:e1:20:3d:
        aa:7c:95:bd:0d:f3:cf:1f:96:eb:17:74:88:5c:46:50:10:34:
        66:b5:ca:b0:6b:6c:25:24:d3:84:ab:00:94:25:ee:2c:a7:8f:
        7f:99:0b:f6:81:31:14:b6:45:33:bc:63:61:16:7d:04:b6:f1:
        76:4a:ba:67:6f:23:5a:e6:f4:d8:2c:71:8a:08:04:e5:3c:a0:
        1a:21:6b:c7:8f:97:89:18:d8:d5:fe:69:76:c4:1a:c0:88:9a:
        49:c6:40:13:c7:ce:b1:8e:cf:cc:12:6d:65:3f:1b:0d:f0:ce:
        01:39:2d:c5:5d:8f:ad:02:3c:0c:94:7c:ed:0e:60:23:0f:4e:
        4a:1f:02:a7:92:63:30:87:c5:aa:f0:5f:e4:00:7b:5e:ca:eb:
        41:7d:b8:bf:8f:b9:87:64:ce:3c:5f:a9:47:d9:15:9f:73:df:
        c8:a0:f1:bf:cb:09:17:84:2f:55:c4:bc:13:48:fc:72:1c:2c:
        cd:00:1a:a0:8e:d9:60:12:11:c9:9c:5b:6c:1c:01:09:5f:6f:
        60:02:5a:d4
-----BEGIN CERTIFICATE-----
MIIDRjCCAi6gAwIBAgIRAKnUHG/23udjwjSqQxQ+Vw0wDQYJKoZIhvcNAQELBQAw
DjEMMAoGA1UEAwwDVlBOMB4XDTI1MDYwMjE1NDc0OVoXDTI3MDkwNTE1NDc0OVow
EjEQMA4GA1UEAwwHcHJ1ZWJhMzCCASIwDQYJKoZIhvcNAQEBBQADggEPADCCAQoC
ggEBAItJXSKTwn2PI80w1aI6CuwuXyCUrHXssTyQfSVJu8y5YpeGGVKT6MliPExx
nKxwrqHebRKZ0fBcRyTDnZHmS3Hac8vbKhPJzI0/IS711EYR/LNLwiGqpcA04vr8
hRDzMmlEfD4MR29UO10EaHdDK3iMoKiiNCGsHgd9n7dLcDzrs9CBv2XUctf/Fe+N
/I0Z8zjQFBq4hQ3EsjLrY79l1QR7W1Yc5PicBxTYjVrSk0zZ2J3Tc5zEPuhaWeTJ
6/C16A3Sc1KCWoaarx/2M+yFISeZ10ylILYyFQt9KKeUNoHkxNStdhP/+819M1AU
J4lfQG9MiXYpcPw5O8cIPJEGK9cCAwEAAaOBmjCBlzAJBgNVHRMEAjAAMB0GA1Ud
DgQWBBQCMRTym/xIYLOskkboXmniefU7izBJBgNVHSMEQjBAgBRs+UAIxmkNEO5n
bdIiXI05RxU3qqESpBAwDjEMMAoGA1UEAwwDVlBOghQQLVZMPSw7LxfiEyez1u2g
j1XreDATBgNVHSUEDDAKBggrBgEFBQcDAjALBgNVHQ8EBAMCB4AwDQYJKoZIhvcN
AQELBQADggEBABnJMXLq9vORaNE1oUl37VwtBIsB1EbhRucdyQo8Wy7x5xaL8ZNU
Nm1qH5q7s9LvGtSal+EgPap8lb0N888flusXdIhcRlAQNGa1yrBrbCUk04SrAJQl
7iynj3+ZC/aBMRS2RTO8Y2EWfQS28XZKumdvI1rm9NgscYoIBOU8oBoha8ePl4kY
2NX+aXbEGsCImknGQBPHzrGOz8wSbWU/Gw3wzgE5LcVdj60CPAyUfO0OYCMPTkof
AqeSYzCHxarwX+QAe17K60F9uL+PuYdkzjxfqUfZFZ9z38ig8b/LCReEL1XEvBNI
/HIcLM0AGqCO2WASEcmcW2wcAQlfb2ACWtQ=
-----END CERTIFICATE-----
