Certificate:
    Data:
        Version: 3 (0x2)
        Serial Number:
            bb:ea:0f:bc:40:18:06:32:9a:de:c0:9b:ba:3a:0c:e8
        Signature Algorithm: sha256WithRSAEncryption
        Issuer: CN=VPN
        Validity
            Not Before: Jun  2 12:58:05 2025 GMT
            Not After : Sep  5 12:58:05 2027 GMT
        Subject: CN=prueba5
        Subject Public Key Info:
            Public Key Algorithm: rsaEncryption
                Public-Key: (2048 bit)
                Modulus:
                    00:d1:48:4f:54:98:39:ca:9f:82:16:ed:32:fd:bb:
                    76:6e:9b:fd:be:cb:6e:e3:86:6f:59:af:e9:f1:19:
                    59:92:d8:f4:cb:c6:37:bd:56:4d:c3:d3:ca:10:67:
                    8c:cf:fe:4b:2d:af:19:09:59:6d:90:00:ff:0b:e9:
                    85:79:c8:cd:72:1a:6d:ce:6a:7a:e6:8c:a7:3b:68:
                    0e:ed:f4:7c:11:3a:7b:c3:5d:c2:b6:73:e2:cb:4c:
                    55:7a:20:39:89:0a:dc:04:ba:80:4d:4c:1f:69:1d:
                    99:d4:7f:41:09:23:d0:ad:a6:9a:cc:a8:88:ea:72:
                    a9:30:99:f9:cf:04:c9:0c:23:9c:7e:3c:0a:2f:60:
                    58:5f:b2:4a:13:0e:34:c7:28:0d:43:96:54:77:13:
                    f1:c5:f3:c3:ba:f3:ba:4c:61:cd:db:aa:6c:bf:af:
                    e2:de:54:e2:ed:3b:cd:fe:1b:a2:b6:34:28:94:ce:
                    00:96:6b:99:7c:f1:20:03:e7:ac:b7:4c:18:87:f3:
                    00:3d:89:b4:26:24:8c:73:86:85:43:9c:18:70:62:
                    db:f7:f0:aa:af:89:65:bc:8f:b3:89:82:10:d9:e2:
                    4f:ce:c1:16:4c:29:18:b3:82:31:f3:94:a0:4d:5d:
                    96:3f:dd:a7:1d:9e:29:99:0c:5a:cd:53:f0:09:df:
                    8a:d3
                Exponent: 65537 (0x10001)
        X509v3 extensions:
            X509v3 Basic Constraints: 
                CA:FALSE
            X509v3 Subject Key Identifier: 
                13:48:A5:AA:00:1A:66:CD:67:B5:B8:51:A1:A9:D4:98:8D:62:1A:F1
            X509v3 Authority Key Identifier: 
                keyid:6C:F9:40:08:C6:69:0D:10:EE:67:6D:D2:22:5C:8D:39:47:15:37:AA
                DirName:/CN=VPN
                serial:10:2D:56:4C:3D:2C:3B:2F:17:E2:13:27:B3:D6:ED:A0:8F:55:EB:78
            X509v3 Extended Key Usage: 
                TLS Web Client Authentication
            X509v3 Key Usage: 
                Digital Signature
    Signature Algorithm: sha256WithRSAEncryption
    Signature Value:
        3e:c1:b8:9c:f3:c5:f2:df:0b:7b:24:61:8c:fa:f6:63:df:e0:
        ae:87:cf:9b:af:a6:69:51:d6:f3:37:da:99:fb:56:d3:24:75:
        9e:02:6b:27:66:ba:73:00:75:81:e4:2f:2b:8a:75:78:38:37:
        07:9d:4a:aa:41:51:65:a1:80:71:f7:67:43:6b:b9:17:65:93:
        a3:f5:86:52:c7:a6:4b:c5:8d:c5:bc:d8:c2:19:9f:94:42:84:
        34:d2:fa:90:d8:ff:0d:5f:b3:2e:c3:db:7f:6e:ad:06:5b:e5:
        b2:ae:9d:c9:f6:c8:4c:4c:63:fc:3a:df:19:b3:91:2e:f5:f5:
        10:16:a4:53:78:81:d2:52:a9:8e:27:cd:5b:37:dc:0c:20:d6:
        bd:78:14:20:95:c5:a2:67:48:ea:76:87:b8:29:b8:db:75:8a:
        8d:11:d1:94:c6:bd:c0:70:9e:91:ea:4e:2b:35:1e:be:b0:94:
        ca:26:9e:3c:f5:73:84:58:2a:81:53:9b:29:46:51:42:a6:47:
        d8:7b:e1:17:15:6c:09:a1:86:3f:a7:a1:f7:9f:9b:54:1c:33:
        03:d5:bd:d3:97:e4:17:bc:66:5c:de:7f:ec:1b:c2:e6:23:a6:
        fb:cf:d4:06:e4:85:4a:40:d1:99:bf:c9:c2:4c:dd:f7:e7:b9:
        1c:b3:60:97
-----BEGIN CERTIFICATE-----
MIIDRjCCAi6gAwIBAgIRALvqD7xAGAYymt7Am7o6DOgwDQYJKoZIhvcNAQELBQAw
DjEMMAoGA1UEAwwDVlBOMB4XDTI1MDYwMjEyNTgwNVoXDTI3MDkwNTEyNTgwNVow
EjEQMA4GA1UEAwwHcHJ1ZWJhNTCCASIwDQYJKoZIhvcNAQEBBQADggEPADCCAQoC
ggEBANFIT1SYOcqfghbtMv27dm6b/b7LbuOGb1mv6fEZWZLY9MvGN71WTcPTyhBn
jM/+Sy2vGQlZbZAA/wvphXnIzXIabc5qeuaMpztoDu30fBE6e8NdwrZz4stMVXog
OYkK3AS6gE1MH2kdmdR/QQkj0K2mmsyoiOpyqTCZ+c8EyQwjnH48Ci9gWF+yShMO
NMcoDUOWVHcT8cXzw7rzukxhzduqbL+v4t5U4u07zf4borY0KJTOAJZrmXzxIAPn
rLdMGIfzAD2JtCYkjHOGhUOcGHBi2/fwqq+JZbyPs4mCENniT87BFkwpGLOCMfOU
oE1dlj/dpx2eKZkMWs1T8AnfitMCAwEAAaOBmjCBlzAJBgNVHRMEAjAAMB0GA1Ud
DgQWBBQTSKWqABpmzWe1uFGhqdSYjWIa8TBJBgNVHSMEQjBAgBRs+UAIxmkNEO5n
bdIiXI05RxU3qqESpBAwDjEMMAoGA1UEAwwDVlBOghQQLVZMPSw7LxfiEyez1u2g
j1XreDATBgNVHSUEDDAKBggrBgEFBQcDAjALBgNVHQ8EBAMCB4AwDQYJKoZIhvcN
AQELBQADggEBAD7BuJzzxfLfC3skYYz69mPf4K6Hz5uvpmlR1vM32pn7VtMkdZ4C
aydmunMAdYHkLyuKdXg4NwedSqpBUWWhgHH3Z0NruRdlk6P1hlLHpkvFjcW82MIZ
n5RChDTS+pDY/w1fsy7D239urQZb5bKuncn2yExMY/w63xmzkS719RAWpFN4gdJS
qY4nzVs33Awg1r14FCCVxaJnSOp2h7gpuNt1io0R0ZTGvcBwnpHqTis1Hr6wlMom
njz1c4RYKoFTmylGUUKmR9h74RcVbAmhhj+nofefm1QcMwPVvdOX5Be8Zlzef+wb
wuYjpvvP1AbkhUpA0Zm/ycJM3ffnuRyzYJc=
-----END CERTIFICATE-----
