Certificate:
    Data:
        Version: 3 (0x2)
        Serial Number:
            da:01:e1:f9:c6:2c:26:f6:37:81:b4:a0:bd:9d:ed:70
        Signature Algorithm: sha256WithRSAEncryption
        Issuer: CN=VPN
        Validity
            Not Before: Jun  7 11:05:31 2025 GMT
            Not After : Sep 10 11:05:31 2027 GMT
        Subject: CN=koka
        Subject Public Key Info:
            Public Key Algorithm: rsaEncryption
                Public-Key: (2048 bit)
                Modulus:
                    00:be:8b:38:19:3e:40:bc:4f:27:75:83:86:5e:87:
                    90:1d:8a:cf:88:3f:22:41:14:fb:07:15:80:19:ca:
                    a2:27:b5:23:1d:b2:29:6d:0b:d7:3b:3e:91:68:c3:
                    f9:f7:17:54:f9:3a:ee:ee:62:0e:54:d7:83:fe:17:
                    3b:db:d7:e9:59:f2:a6:eb:17:ad:e2:07:b2:0f:c0:
                    af:8e:b2:16:c9:86:c6:3e:10:70:25:91:16:82:be:
                    3b:66:4c:0c:71:29:89:18:82:fa:a8:60:d9:41:09:
                    d8:04:a8:5d:f7:66:f3:03:42:63:63:69:3a:d0:40:
                    01:c5:39:9c:b2:58:24:0f:13:bd:7a:36:31:55:61:
                    23:14:f4:b0:f8:dc:14:8d:a7:4c:89:0b:b1:56:97:
                    67:5a:86:b6:c0:97:ff:08:ff:42:ed:e8:c8:a5:13:
                    26:b3:93:69:3f:7c:6e:3a:e3:54:40:47:18:69:30:
                    dd:e7:79:57:56:e6:d3:19:c1:8f:7f:70:1c:73:43:
                    f2:1e:4b:d2:90:d5:44:2a:7a:1d:7b:7c:40:5d:64:
                    be:e1:59:b9:71:cc:99:ca:0c:02:03:1f:cf:cd:72:
                    b4:9b:d4:2e:40:c1:5b:d7:d9:cb:b4:a6:a3:0b:e7:
                    84:64:e5:9e:c5:d9:8d:0d:27:4b:52:69:7e:2d:62:
                    6b:87
                Exponent: 65537 (0x10001)
        X509v3 extensions:
            X509v3 Basic Constraints: 
                CA:FALSE
            X509v3 Subject Key Identifier: 
                31:3A:5F:2C:53:08:B6:BA:64:4E:5F:8E:16:B4:CF:C8:2E:0D:0B:B0
            X509v3 Authority Key Identifier: 
                keyid:6C:F9:40:08:C6:69:0D:10:EE:67:6D:D2:22:5C:8D:39:47:15:37:AA
                DirName:/CN=VPN
                serial:10:2D:56:4C:3D:2C:3B:2F:17:E2:13:27:B3:D6:ED:A0:8F:55:EB:78
            X509v3 Extended Key Usage: 
                TLS Web Client Authentication
            X509v3 Key Usage: 
                Digital Signature
    Signature Algorithm: sha256WithRSAEncryption
    Signature Value:
        65:8f:28:4b:94:03:36:ed:2c:c7:6f:8c:80:7a:a3:c8:a2:e8:
        ca:13:b4:b8:fc:d9:f0:ca:5c:59:af:f8:37:9b:37:41:7a:81:
        78:e8:8c:40:4e:d7:d5:3a:bc:46:9c:5d:f4:cd:a9:d8:07:f3:
        43:32:16:d0:5b:73:00:3b:9b:c9:ce:08:18:bc:d3:ad:07:0e:
        4b:dd:49:14:a5:5e:8b:d1:a3:44:27:af:9b:a8:ee:86:31:28:
        8d:d6:67:0d:71:0c:43:3b:c2:ac:60:db:e1:a3:7c:6b:3b:f8:
        07:84:99:5d:90:bd:b1:a7:1c:c2:9d:12:c2:a5:21:5f:87:e1:
        02:3d:79:59:db:85:d8:18:9c:09:a6:5b:ef:f8:93:d9:69:20:
        9f:ea:1d:6f:fa:59:59:db:7f:73:3f:5f:af:6c:14:91:b5:b7:
        bd:89:53:0f:21:1f:b2:69:51:c3:7f:3b:1e:82:31:b9:d8:13:
        07:64:0f:94:87:57:2c:be:41:b2:e3:c9:e7:34:44:54:f1:bf:
        8a:56:fa:b9:52:2e:04:4e:83:9b:a8:6a:2b:2e:37:40:59:05:
        60:10:84:10:0c:54:8b:67:30:bd:0d:79:74:b3:ee:89:3f:b0:
        90:81:63:1c:81:ef:b7:86:1d:22:2c:4f:eb:8f:13:0b:ae:51:
        87:ce:f7:9a
-----BEGIN CERTIFICATE-----
MIIDQzCCAiugAwIBAgIRANoB4fnGLCb2N4G0oL2d7XAwDQYJKoZIhvcNAQELBQAw
DjEMMAoGA1UEAwwDVlBOMB4XDTI1MDYwNzExMDUzMVoXDTI3MDkxMDExMDUzMVow
DzENMAsGA1UEAwwEa29rYTCCASIwDQYJKoZIhvcNAQEBBQADggEPADCCAQoCggEB
AL6LOBk+QLxPJ3WDhl6HkB2Kz4g/IkEU+wcVgBnKoie1Ix2yKW0L1zs+kWjD+fcX
VPk67u5iDlTXg/4XO9vX6VnypusXreIHsg/Ar46yFsmGxj4QcCWRFoK+O2ZMDHEp
iRiC+qhg2UEJ2ASoXfdm8wNCY2NpOtBAAcU5nLJYJA8TvXo2MVVhIxT0sPjcFI2n
TIkLsVaXZ1qGtsCX/wj/Qu3oyKUTJrOTaT98bjrjVEBHGGkw3ed5V1bm0xnBj39w
HHND8h5L0pDVRCp6HXt8QF1kvuFZuXHMmcoMAgMfz81ytJvULkDBW9fZy7Smowvn
hGTlnsXZjQ0nS1Jpfi1ia4cCAwEAAaOBmjCBlzAJBgNVHRMEAjAAMB0GA1UdDgQW
BBQxOl8sUwi2umROX44WtM/ILg0LsDBJBgNVHSMEQjBAgBRs+UAIxmkNEO5nbdIi
XI05RxU3qqESpBAwDjEMMAoGA1UEAwwDVlBOghQQLVZMPSw7LxfiEyez1u2gj1Xr
eDATBgNVHSUEDDAKBggrBgEFBQcDAjALBgNVHQ8EBAMCB4AwDQYJKoZIhvcNAQEL
BQADggEBAGWPKEuUAzbtLMdvjIB6o8ii6MoTtLj82fDKXFmv+DebN0F6gXjojEBO
19U6vEacXfTNqdgH80MyFtBbcwA7m8nOCBi8060HDkvdSRSlXovRo0Qnr5uo7oYx
KI3WZw1xDEM7wqxg2+GjfGs7+AeEmV2QvbGnHMKdEsKlIV+H4QI9eVnbhdgYnAmm
W+/4k9lpIJ/qHW/6WVnbf3M/X69sFJG1t72JUw8hH7JpUcN/Ox6CMbnYEwdkD5SH
Vyy+QbLjyec0RFTxv4pW+rlSLgROg5uoaisuN0BZBWAQhBAMVItnML0NeXSz7ok/
sJCBYxyB77eGHSIsT+uPEwuuUYfO95o=
-----END CERTIFICATE-----
