Certificate:
    Data:
        Version: 3 (0x2)
        Serial Number:
            ec:e1:b1:b5:05:68:63:d3:e2:da:cc:81:47:b5:25:d7
        Signature Algorithm: sha256WithRSAEncryption
        Issuer: CN=VPN
        Validity
            Not Before: Jun  4 11:40:11 2025 GMT
            Not After : Sep  7 11:40:11 2027 GMT
        Subject: CN=prueba10
        Subject Public Key Info:
            Public Key Algorithm: rsaEncryption
                Public-Key: (2048 bit)
                Modulus:
                    00:92:96:ee:ef:07:2b:12:32:0a:a0:1c:ce:d1:b3:
                    a9:95:0a:3b:a9:9b:ef:9f:ee:83:5c:1a:70:ca:54:
                    ea:df:8b:a4:bc:22:a0:5f:0f:01:27:b0:be:95:26:
                    7b:38:f4:a2:b6:20:44:79:48:1b:be:1d:49:6e:93:
                    a7:69:3f:84:0d:3f:40:a1:e0:6a:ee:74:c4:f5:c0:
                    08:bd:a6:94:b0:f1:fb:21:f0:58:77:85:69:32:26:
                    c6:00:d0:90:99:7e:4b:8d:71:ea:e5:81:7c:bc:d0:
                    1c:1f:b7:e1:ac:70:21:c7:0c:e3:f2:d4:8a:93:c0:
                    7c:36:e3:28:4e:55:b9:ca:ac:bf:26:a9:fb:a6:51:
                    c0:c3:ad:80:5b:b0:26:03:46:00:13:f2:87:99:5e:
                    db:f5:48:ed:4f:c1:14:16:74:e6:e4:6c:6d:86:ce:
                    72:36:8b:d4:8e:0a:f3:fb:66:d4:46:01:dd:44:00:
                    8a:14:19:8f:56:36:6d:a4:30:b3:9f:98:b5:85:f8:
                    ce:0c:bd:ba:7c:8f:4f:9f:e9:e1:cd:92:3e:d2:ec:
                    a5:b1:73:0c:08:6a:0c:ae:94:7f:bc:19:58:d6:60:
                    28:0e:73:83:3f:45:59:b1:19:06:58:5e:93:1d:16:
                    34:b2:fa:6f:6c:a6:48:f1:0e:95:74:00:43:a0:b3:
                    4e:6b
                Exponent: 65537 (0x10001)
        X509v3 extensions:
            X509v3 Basic Constraints: 
                CA:FALSE
            X509v3 Subject Key Identifier: 
                E4:8C:3F:C8:DD:D0:F0:93:F3:95:26:16:B5:9C:3F:AF:4F:97:29:C3
            X509v3 Authority Key Identifier: 
                keyid:6C:F9:40:08:C6:69:0D:10:EE:67:6D:D2:22:5C:8D:39:47:15:37:AA
                DirName:/CN=VPN
                serial:10:2D:56:4C:3D:2C:3B:2F:17:E2:13:27:B3:D6:ED:A0:8F:55:EB:78
            X509v3 Extended Key Usage: 
                TLS Web Client Authentication
            X509v3 Key Usage: 
                Digital Signature
    Signature Algorithm: sha256WithRSAEncryption
    Signature Value:
        89:dd:f5:61:3f:51:8c:dd:95:88:96:eb:b2:69:9b:4b:bd:99:
        17:ad:42:93:f0:30:2a:57:e2:3b:c4:fc:b8:96:8b:79:f9:90:
        26:16:6a:f6:7f:7c:18:03:13:88:1d:01:ef:c9:3b:fc:f3:d7:
        bd:4f:e3:bb:24:39:9e:30:e7:00:61:4d:f3:56:cf:f1:ac:74:
        d3:9e:1d:c1:11:c7:bc:07:32:bc:e4:ab:05:54:ed:2d:88:69:
        05:b3:57:f0:4e:2b:04:ef:61:ef:5a:92:8a:ed:62:1b:43:49:
        d3:df:5c:e7:ac:c7:67:66:3b:22:2a:0f:c9:dd:0a:91:b7:40:
        1e:15:8a:19:98:f2:cd:9b:5a:2f:7e:9c:d0:45:97:f4:30:ab:
        e0:28:9f:65:a7:ae:26:54:1f:6e:61:35:7d:ef:5b:dd:a3:eb:
        4e:d4:79:47:0c:ff:cb:fc:b5:f8:ea:f7:1d:fe:eb:86:ac:f1:
        f1:e1:cb:b1:7b:41:f8:76:70:d1:62:cc:eb:f4:6d:0d:f7:05:
        41:26:72:6e:af:1b:26:81:82:85:10:c6:b4:df:78:49:15:cd:
        65:df:96:a0:e4:8c:0f:6c:d0:e9:b4:c2:ec:4a:25:14:de:6a:
        85:32:e2:48:57:eb:54:e9:c7:67:4c:f9:a1:e3:bb:27:74:95:
        40:75:1a:83
-----BEGIN CERTIFICATE-----
MIIDRzCCAi+gAwIBAgIRAOzhsbUFaGPT4trMgUe1JdcwDQYJKoZIhvcNAQELBQAw
DjEMMAoGA1UEAwwDVlBOMB4XDTI1MDYwNDExNDAxMVoXDTI3MDkwNzExNDAxMVow
EzERMA8GA1UEAwwIcHJ1ZWJhMTAwggEiMA0GCSqGSIb3DQEBAQUAA4IBDwAwggEK
AoIBAQCSlu7vBysSMgqgHM7Rs6mVCjupm++f7oNcGnDKVOrfi6S8IqBfDwEnsL6V
Jns49KK2IER5SBu+HUluk6dpP4QNP0Ch4GrudMT1wAi9ppSw8fsh8Fh3hWkyJsYA
0JCZfkuNcerlgXy80Bwft+GscCHHDOPy1IqTwHw24yhOVbnKrL8mqfumUcDDrYBb
sCYDRgAT8oeZXtv1SO1PwRQWdObkbG2GznI2i9SOCvP7ZtRGAd1EAIoUGY9WNm2k
MLOfmLWF+M4Mvbp8j0+f6eHNkj7S7KWxcwwIagyulH+8GVjWYCgOc4M/RVmxGQZY
XpMdFjSy+m9spkjxDpV0AEOgs05rAgMBAAGjgZowgZcwCQYDVR0TBAIwADAdBgNV
HQ4EFgQU5Iw/yN3Q8JPzlSYWtZw/r0+XKcMwSQYDVR0jBEIwQIAUbPlACMZpDRDu
Z23SIlyNOUcVN6qhEqQQMA4xDDAKBgNVBAMMA1ZQToIUEC1WTD0sOy8X4hMns9bt
oI9V63gwEwYDVR0lBAwwCgYIKwYBBQUHAwIwCwYDVR0PBAQDAgeAMA0GCSqGSIb3
DQEBCwUAA4IBAQCJ3fVhP1GM3ZWIluuyaZtLvZkXrUKT8DAqV+I7xPy4lot5+ZAm
Fmr2f3wYAxOIHQHvyTv889e9T+O7JDmeMOcAYU3zVs/xrHTTnh3BEce8BzK85KsF
VO0tiGkFs1fwTisE72HvWpKK7WIbQ0nT31znrMdnZjsiKg/J3QqRt0AeFYoZmPLN
m1ovfpzQRZf0MKvgKJ9lp64mVB9uYTV971vdo+tO1HlHDP/L/LX46vcd/uuGrPHx
4cuxe0H4dnDRYszr9G0N9wVBJnJurxsmgYKFEMa033hJFc1l35ag5IwPbNDptMLs
SiUU3mqFMuJIV+tU6cdnTPmh47sndJVAdRqD
-----END CERTIFICATE-----
