Certificate:
    Data:
        Version: 3 (0x2)
        Serial Number:
            e9:49:2c:67:0f:67:28:de:c3:66:37:0c:87:ee:6b:e0
        Signature Algorithm: sha256WithRSAEncryption
        Issuer: CN=VPN
        Validity
            Not Before: May 10 15:15:03 2025 GMT
            Not After : Aug 13 15:15:03 2027 GMT
        Subject: CN=pako
        Subject Public Key Info:
            Public Key Algorithm: rsaEncryption
                Public-Key: (2048 bit)
                Modulus:
                    00:b8:7d:24:a3:c1:b0:a9:a9:1f:64:b1:7b:a3:c9:
                    9c:0c:9b:27:b0:c1:2f:ca:8b:d1:89:03:41:aa:1a:
                    8c:38:21:8f:63:fd:ec:48:c9:83:d4:c1:d1:e0:20:
                    a5:e0:14:62:23:00:18:a9:59:c5:96:a0:05:af:d5:
                    8e:0d:cf:e3:d2:e0:e7:17:02:1d:4d:c3:22:e0:a7:
                    ac:14:00:3a:2f:57:8a:d8:a9:a9:9a:67:d3:a7:f4:
                    f2:6c:d9:c3:ee:6f:f2:04:a8:02:74:5a:cc:4b:b5:
                    bd:54:38:5a:1d:99:04:1e:bf:74:fd:54:f7:93:d8:
                    b2:f6:8e:59:d0:4b:81:d1:91:8d:04:25:e0:44:1f:
                    df:2e:f3:5e:5a:6e:33:e5:84:dc:66:05:1e:9c:3a:
                    2b:a1:62:c5:7c:67:9c:a5:09:b9:7a:24:c6:8f:bd:
                    e3:cb:cc:54:46:b7:30:b7:b4:08:11:9d:1d:22:e3:
                    b7:5a:8a:50:a5:c9:f0:29:20:c7:e6:cc:76:e9:a5:
                    28:d7:87:e7:05:8c:10:79:ed:80:13:05:b6:c2:7f:
                    c1:2b:2f:52:8e:08:ad:6c:00:4b:77:3f:42:45:f7:
                    0b:34:a2:1c:4a:02:98:e6:79:bf:95:4f:1c:e6:c8:
                    d6:7a:6b:68:ae:fc:89:e6:a0:85:6a:bc:1e:71:b0:
                    af:c1
                Exponent: 65537 (0x10001)
        X509v3 extensions:
            X509v3 Basic Constraints: 
                CA:FALSE
            X509v3 Subject Key Identifier: 
                DB:BC:0D:FE:86:BD:DC:12:7B:57:B6:41:47:07:49:8D:71:9A:3E:27
            X509v3 Authority Key Identifier: 
                keyid:6C:F9:40:08:C6:69:0D:10:EE:67:6D:D2:22:5C:8D:39:47:15:37:AA
                DirName:/CN=VPN
                serial:10:2D:56:4C:3D:2C:3B:2F:17:E2:13:27:B3:D6:ED:A0:8F:55:EB:78
            X509v3 Extended Key Usage: 
                TLS Web Client Authentication
            X509v3 Key Usage: 
                Digital Signature
    Signature Algorithm: sha256WithRSAEncryption
    Signature Value:
        69:22:08:29:3e:66:e0:1d:be:02:d1:64:6e:9f:cd:bb:f5:92:
        5a:d3:b4:ba:99:55:2a:5a:b1:c1:16:a8:f1:76:d3:d0:a8:16:
        56:2b:39:bd:78:48:57:6a:f7:0e:bc:80:de:b7:cc:9e:38:e9:
        f0:4a:a6:67:a1:1c:ee:0d:d0:82:1f:63:9a:3e:e5:5d:ae:d8:
        d9:14:bc:da:1d:a0:f7:99:14:d7:ca:42:9c:83:9a:ed:2d:83:
        94:f8:bb:6d:c3:4c:fb:6c:12:15:19:7c:c6:00:9a:7b:9f:ba:
        b4:c9:12:c2:9c:8d:44:6e:f2:37:84:b9:c3:27:ab:6b:6e:6c:
        3d:99:dd:a7:7c:d9:35:1c:57:02:80:06:39:e5:20:af:9b:28:
        0c:11:34:02:6d:79:1d:26:d7:a7:08:ad:f3:a9:9b:13:6c:bf:
        d7:a9:31:be:17:4a:c1:68:27:95:9a:82:f0:47:86:aa:6e:1e:
        25:50:01:aa:f6:cb:c6:8e:1d:79:4c:5b:11:38:ac:dc:a6:03:
        e9:21:8e:79:af:5a:6f:c0:72:fe:d4:f2:fb:1b:ce:08:5a:98:
        2b:2e:6c:f3:16:cb:a0:17:86:3b:9c:a2:9a:54:f3:56:e9:bc:
        b4:29:2c:c5:9b:5c:cb:f1:0d:6a:16:15:6e:ad:95:dc:ba:2b:
        af:3d:39:4a
-----BEGIN CERTIFICATE-----
MIIDQzCCAiugAwIBAgIRAOlJLGcPZyjew2Y3DIfua+AwDQYJKoZIhvcNAQELBQAw
DjEMMAoGA1UEAwwDVlBOMB4XDTI1MDUxMDE1MTUwM1oXDTI3MDgxMzE1MTUwM1ow
DzENMAsGA1UEAwwEcGFrbzCCASIwDQYJKoZIhvcNAQEBBQADggEPADCCAQoCggEB
ALh9JKPBsKmpH2Sxe6PJnAybJ7DBL8qL0YkDQaoajDghj2P97EjJg9TB0eAgpeAU
YiMAGKlZxZagBa/Vjg3P49Lg5xcCHU3DIuCnrBQAOi9XitipqZpn06f08mzZw+5v
8gSoAnRazEu1vVQ4Wh2ZBB6/dP1U95PYsvaOWdBLgdGRjQQl4EQf3y7zXlpuM+WE
3GYFHpw6K6FixXxnnKUJuXokxo+948vMVEa3MLe0CBGdHSLjt1qKUKXJ8Ckgx+bM
dumlKNeH5wWMEHntgBMFtsJ/wSsvUo4IrWwAS3c/QkX3CzSiHEoCmOZ5v5VPHObI
1npraK78ieaghWq8HnGwr8ECAwEAAaOBmjCBlzAJBgNVHRMEAjAAMB0GA1UdDgQW
BBTbvA3+hr3cEntXtkFHB0mNcZo+JzBJBgNVHSMEQjBAgBRs+UAIxmkNEO5nbdIi
XI05RxU3qqESpBAwDjEMMAoGA1UEAwwDVlBOghQQLVZMPSw7LxfiEyez1u2gj1Xr
eDATBgNVHSUEDDAKBggrBgEFBQcDAjALBgNVHQ8EBAMCB4AwDQYJKoZIhvcNAQEL
BQADggEBAGkiCCk+ZuAdvgLRZG6fzbv1klrTtLqZVSpascEWqPF209CoFlYrOb14
SFdq9w68gN63zJ446fBKpmehHO4N0IIfY5o+5V2u2NkUvNodoPeZFNfKQpyDmu0t
g5T4u23DTPtsEhUZfMYAmnufurTJEsKcjURu8jeEucMnq2tubD2Z3ad82TUcVwKA
BjnlIK+bKAwRNAJteR0m16cIrfOpmxNsv9epMb4XSsFoJ5WagvBHhqpuHiVQAar2
y8aOHXlMWxE4rNymA+khjnmvWm/Acv7U8vsbzghamCsubPMWy6AXhjucoppU81bp
vLQpLMWbXMvxDWoWFW6tldy6K689OUo=
-----END CERTIFICATE-----
