Certificate:
    Data:
        Version: 3 (0x2)
        Serial Number:
            f0:72:40:a8:04:95:63:ef:01:86:06:46:64:91:ab:65
        Signature Algorithm: sha256WithRSAEncryption
        Issuer: CN=VPN
        Validity
            Not Before: May  8 18:07:54 2025 GMT
            Not After : Aug 11 18:07:54 2027 GMT
        Subject: CN=samuel
        Subject Public Key Info:
            Public Key Algorithm: rsaEncryption
                Public-Key: (2048 bit)
                Modulus:
                    00:8c:00:e8:29:b2:f1:e0:75:eb:a3:6e:9e:36:3f:
                    8c:ab:7f:2e:72:25:35:3b:10:4f:e3:63:c2:07:f2:
                    a7:7c:12:bc:5f:76:0e:26:44:74:98:f4:1f:5b:34:
                    25:0d:23:eb:a5:ba:3f:70:98:73:42:40:e2:ba:a3:
                    7f:af:6d:13:cf:a9:11:ba:c8:2c:8c:d2:88:05:a3:
                    1a:77:48:24:b5:a7:e5:19:12:2d:eb:2d:68:7e:3a:
                    08:d4:3c:eb:f1:1e:45:b6:1f:86:2a:b7:e5:3f:f7:
                    64:ea:7c:01:05:b8:26:05:27:ba:c8:c3:58:f9:ba:
                    c2:07:3b:9d:46:cb:72:7d:e5:51:b9:15:c7:2f:83:
                    71:65:c6:e7:de:bc:3c:22:31:62:c8:bd:46:ff:23:
                    fd:48:8a:0e:87:6f:1c:b1:ee:68:3b:26:b2:43:fd:
                    df:72:d7:71:a1:d5:3d:2b:04:0b:db:71:c7:6f:dd:
                    81:db:bf:3b:7a:30:0f:50:34:d5:ab:1c:ba:ff:b4:
                    aa:89:bf:36:52:0f:9d:ec:af:b6:96:84:96:a5:12:
                    8b:bf:02:01:5d:d0:52:d6:c7:51:26:ac:b8:91:14:
                    5b:52:f2:a4:73:0a:16:89:13:8d:09:fe:4c:4c:b6:
                    39:86:ed:3b:8c:a6:0c:08:2d:1a:18:ba:e3:4e:5e:
                    b0:45
                Exponent: 65537 (0x10001)
        X509v3 extensions:
            X509v3 Basic Constraints: 
                CA:FALSE
            X509v3 Subject Key Identifier: 
                DD:64:12:48:63:D3:4F:F9:62:92:CE:79:A9:A7:C0:3E:A2:F1:22:C2
            X509v3 Authority Key Identifier: 
                keyid:6C:F9:40:08:C6:69:0D:10:EE:67:6D:D2:22:5C:8D:39:47:15:37:AA
                DirName:/CN=VPN
                serial:10:2D:56:4C:3D:2C:3B:2F:17:E2:13:27:B3:D6:ED:A0:8F:55:EB:78
            X509v3 Extended Key Usage: 
                TLS Web Client Authentication
            X509v3 Key Usage: 
                Digital Signature
    Signature Algorithm: sha256WithRSAEncryption
    Signature Value:
        07:e2:b1:ad:ed:60:bf:6d:3c:fa:ba:df:6a:c0:d2:c8:5d:86:
        e5:27:e4:26:ea:3f:09:4e:71:b5:63:89:8a:dd:4b:63:24:10:
        00:4a:44:07:26:82:8b:b5:53:96:8c:e2:44:c8:94:14:ac:7e:
        1f:6e:0b:28:93:8b:2b:8b:bb:02:95:7d:2f:67:5c:2b:3e:32:
        9d:f7:62:c3:eb:69:83:2d:b5:d1:60:66:8d:58:48:a1:6d:67:
        5d:c5:9e:6d:18:70:2e:bd:71:f8:cb:74:28:e7:ee:8b:da:e9:
        55:45:ff:73:7b:e4:ba:e3:8d:a8:9d:41:aa:18:1d:70:83:3d:
        f5:95:82:f1:88:e8:f9:a8:9b:ee:9b:1e:54:6b:2a:2c:0a:8d:
        4c:7c:0a:88:73:c4:cb:b5:db:7e:5c:ae:2a:a8:11:27:69:12:
        70:1d:82:a1:1d:2f:75:ef:ec:08:04:90:dc:f5:75:96:86:12:
        54:6c:fa:95:5f:8d:a6:89:8f:a8:15:6f:73:7b:23:dd:1b:79:
        f1:0c:4f:0c:c6:be:f1:3b:6f:2f:37:7a:c5:22:c1:7e:6f:cd:
        41:1f:6a:d2:e7:a7:26:41:92:1f:95:8b:18:7f:d0:db:cd:ee:
        e1:b2:b2:f7:1b:fb:6f:3d:3f:0b:b8:91:76:cb:e5:e3:60:6b:
        05:c7:77:da
-----BEGIN CERTIFICATE-----
MIIDRTCCAi2gAwIBAgIRAPByQKgElWPvAYYGRmSRq2UwDQYJKoZIhvcNAQELBQAw
DjEMMAoGA1UEAwwDVlBOMB4XDTI1MDUwODE4MDc1NFoXDTI3MDgxMTE4MDc1NFow
ETEPMA0GA1UEAwwGc2FtdWVsMIIBIjANBgkqhkiG9w0BAQEFAAOCAQ8AMIIBCgKC
AQEAjADoKbLx4HXro26eNj+Mq38uciU1OxBP42PCB/KnfBK8X3YOJkR0mPQfWzQl
DSPrpbo/cJhzQkDiuqN/r20Tz6kRusgsjNKIBaMad0gktaflGRIt6y1ofjoI1Dzr
8R5Fth+GKrflP/dk6nwBBbgmBSe6yMNY+brCBzudRstyfeVRuRXHL4NxZcbn3rw8
IjFiyL1G/yP9SIoOh28cse5oOyayQ/3fctdxodU9KwQL23HHb92B2787ejAPUDTV
qxy6/7Sqib82Ug+d7K+2loSWpRKLvwIBXdBS1sdRJqy4kRRbUvKkcwoWiRONCf5M
TLY5hu07jKYMCC0aGLrjTl6wRQIDAQABo4GaMIGXMAkGA1UdEwQCMAAwHQYDVR0O
BBYEFN1kEkhj00/5YpLOeamnwD6i8SLCMEkGA1UdIwRCMECAFGz5QAjGaQ0Q7mdt
0iJcjTlHFTeqoRKkEDAOMQwwCgYDVQQDDANWUE6CFBAtVkw9LDsvF+ITJ7PW7aCP
Vet4MBMGA1UdJQQMMAoGCCsGAQUFBwMCMAsGA1UdDwQEAwIHgDANBgkqhkiG9w0B
AQsFAAOCAQEAB+Kxre1gv208+rrfasDSyF2G5SfkJuo/CU5xtWOJit1LYyQQAEpE
ByaCi7VTloziRMiUFKx+H24LKJOLK4u7ApV9L2dcKz4ynfdiw+tpgy210WBmjVhI
oW1nXcWebRhwLr1x+Mt0KOfui9rpVUX/c3vkuuONqJ1BqhgdcIM99ZWC8Yjo+aib
7pseVGsqLAqNTHwKiHPEy7XbflyuKqgRJ2kScB2CoR0vde/sCASQ3PV1loYSVGz6
lV+NpomPqBVvc3sj3Rt58QxPDMa+8TtvLzd6xSLBfm/NQR9q0uenJkGSH5WLGH/Q
283u4bKy9xv7bz0/C7iRdsvl42BrBcd32g==
-----END CERTIFICATE-----
