Certificate:
    Data:
        Version: 3 (0x2)
        Serial Number:
            59:81:74:c2:d7:e5:2a:ad:ac:29:ba:b9:43:97:bc:27
        Signature Algorithm: sha256WithRSAEncryption
        Issuer: CN=VPN
        Validity
            Not Before: May 31 15:54:53 2025 GMT
            Not After : Sep  3 15:54:53 2027 GMT
        Subject: CN=maria
        Subject Public Key Info:
            Public Key Algorithm: rsaEncryption
                Public-Key: (2048 bit)
                Modulus:
                    00:b9:0b:bf:b7:a3:e0:ce:78:88:4f:f0:77:cd:5f:
                    c8:3e:46:ab:98:5d:0a:6f:da:c0:48:af:d1:42:bd:
                    c0:7b:96:bd:1e:d5:44:90:d2:bc:11:25:6f:07:55:
                    37:b8:33:3a:bb:f9:00:9c:af:63:30:c9:44:dd:b1:
                    73:99:f1:37:28:6f:ab:74:80:26:fc:26:9a:bf:65:
                    78:cf:69:4b:8f:ca:b5:a6:58:f9:d2:2e:50:4f:9f:
                    33:aa:bb:7a:59:e0:ab:4c:8a:90:4e:8b:31:bc:7c:
                    8a:48:5a:fd:0a:07:70:2d:6a:39:84:b8:83:9d:d3:
                    b9:04:03:3b:82:3a:fc:23:6f:59:a6:5b:65:3e:07:
                    0c:4c:ae:32:9f:74:60:cf:06:9e:10:9e:64:44:7d:
                    31:c9:e1:53:1a:bf:f3:e2:07:ef:67:c1:d7:01:6a:
                    d9:ca:0e:18:22:a3:4b:69:be:0e:42:3a:96:25:39:
                    0a:4e:b3:81:63:48:8d:78:37:09:08:8d:37:52:7c:
                    e7:b9:64:ef:8e:3a:24:e6:55:65:6c:d3:70:f7:db:
                    8d:59:c6:b3:8b:81:68:d0:7a:76:1a:2f:ed:be:64:
                    c4:94:7f:fc:64:93:53:84:dc:37:ff:24:ae:87:c5:
                    37:af:78:c9:ab:81:65:1d:a7:06:c2:8a:39:4b:b6:
                    ec:1d
                Exponent: 65537 (0x10001)
        X509v3 extensions:
            X509v3 Basic Constraints: 
                CA:FALSE
            X509v3 Subject Key Identifier: 
                25:18:FF:90:22:D6:A1:40:77:E4:3A:AC:C4:7E:07:21:B2:A2:9A:95
            X509v3 Authority Key Identifier: 
                keyid:6C:F9:40:08:C6:69:0D:10:EE:67:6D:D2:22:5C:8D:39:47:15:37:AA
                DirName:/CN=VPN
                serial:10:2D:56:4C:3D:2C:3B:2F:17:E2:13:27:B3:D6:ED:A0:8F:55:EB:78
            X509v3 Extended Key Usage: 
                TLS Web Client Authentication
            X509v3 Key Usage: 
                Digital Signature
    Signature Algorithm: sha256WithRSAEncryption
    Signature Value:
        78:62:78:2d:e5:99:34:7e:b8:7f:b2:f0:c7:1d:47:12:d5:67:
        12:8d:73:d7:e6:71:ae:36:45:e8:6b:2a:21:7f:0d:05:7a:a6:
        d5:be:2a:93:6b:f2:ec:83:cf:94:e2:c1:4f:95:d3:1a:11:17:
        52:ce:bb:7f:70:a1:68:15:64:d1:63:e9:0a:86:56:f7:05:8e:
        87:e7:6b:53:9c:5d:0c:c3:0c:7e:18:c4:3b:20:fe:0c:17:30:
        03:81:f2:ed:fa:c6:dd:5a:f7:0f:bf:95:55:45:f2:d3:8b:19:
        ab:40:4a:44:8e:33:09:fe:fb:fa:00:f0:4d:23:8c:69:8e:01:
        9d:ca:42:70:21:b4:5d:3e:14:a5:9e:44:a4:48:e4:49:3b:cb:
        bf:92:b1:e9:e5:f8:d9:3a:f5:6b:85:5e:fb:bd:d1:e0:1a:d6:
        5d:9b:38:f7:74:59:98:b2:9b:b1:ad:3c:ae:98:03:4c:4a:01:
        aa:f6:64:6f:92:b0:4a:89:ff:c0:45:75:40:03:fa:83:a9:65:
        21:78:59:24:26:2a:da:b1:d3:07:bc:4e:07:c7:e8:9c:1b:9a:
        9f:cb:1c:d5:46:c4:fe:f8:09:0d:f6:4d:2e:14:5d:fd:85:dd:
        ba:8c:cf:0f:60:73:f5:2b:3a:1b:7e:af:ec:d4:b8:83:c2:21:
        b9:73:db:90
-----BEGIN CERTIFICATE-----
MIIDQzCCAiugAwIBAgIQWYF0wtflKq2sKbq5Q5e8JzANBgkqhkiG9w0BAQsFADAO
MQwwCgYDVQQDDANWUE4wHhcNMjUwNTMxMTU1NDUzWhcNMjcwOTAzMTU1NDUzWjAQ
MQ4wDAYDVQQDDAVtYXJpYTCCASIwDQYJKoZIhvcNAQEBBQADggEPADCCAQoCggEB
ALkLv7ej4M54iE/wd81fyD5Gq5hdCm/awEiv0UK9wHuWvR7VRJDSvBElbwdVN7gz
Orv5AJyvYzDJRN2xc5nxNyhvq3SAJvwmmr9leM9pS4/KtaZY+dIuUE+fM6q7elng
q0yKkE6LMbx8ikha/QoHcC1qOYS4g53TuQQDO4I6/CNvWaZbZT4HDEyuMp90YM8G
nhCeZER9McnhUxq/8+IH72fB1wFq2coOGCKjS2m+DkI6liU5Ck6zgWNIjXg3CQiN
N1J857lk7446JOZVZWzTcPfbjVnGs4uBaNB6dhov7b5kxJR//GSTU4TcN/8krofF
N694yauBZR2nBsKKOUu27B0CAwEAAaOBmjCBlzAJBgNVHRMEAjAAMB0GA1UdDgQW
BBQlGP+QItahQHfkOqzEfgchsqKalTBJBgNVHSMEQjBAgBRs+UAIxmkNEO5nbdIi
XI05RxU3qqESpBAwDjEMMAoGA1UEAwwDVlBOghQQLVZMPSw7LxfiEyez1u2gj1Xr
eDATBgNVHSUEDDAKBggrBgEFBQcDAjALBgNVHQ8EBAMCB4AwDQYJKoZIhvcNAQEL
BQADggEBAHhieC3lmTR+uH+y8McdRxLVZxKNc9fmca42RehrKiF/DQV6ptW+KpNr
8uyDz5TiwU+V0xoRF1LOu39woWgVZNFj6QqGVvcFjofna1OcXQzDDH4YxDsg/gwX
MAOB8u36xt1a9w+/lVVF8tOLGatASkSOMwn++/oA8E0jjGmOAZ3KQnAhtF0+FKWe
RKRI5Ek7y7+Ssenl+Nk69WuFXvu90eAa1l2bOPd0WZiym7GtPK6YA0xKAar2ZG+S
sEqJ/8BFdUAD+oOpZSF4WSQmKtqx0we8TgfH6Jwbmp/LHNVGxP74CQ32TS4UXf2F
3bqMzw9gc/UrOht+r+zUuIPCIblz25A=
-----END CERTIFICATE-----
