Certificate:
    Data:
        Version: 3 (0x2)
        Serial Number:
            f8:e2:bb:84:6f:a8:35:8b:62:6d:12:6b:4f:05:91:48
        Signature Algorithm: sha256WithRSAEncryption
        Issuer: CN=VPN
        Validity
            Not Before: Jun  8 15:17:13 2025 GMT
            Not After : Sep 11 15:17:13 2027 GMT
        Subject: CN=Nico
        Subject Public Key Info:
            Public Key Algorithm: rsaEncryption
                Public-Key: (2048 bit)
                Modulus:
                    00:a6:35:f0:9c:3d:59:a3:32:62:31:32:13:10:73:
                    54:9f:84:70:a4:d5:5e:b2:fc:b5:1a:36:57:26:ba:
                    1e:de:a8:f0:78:9b:5e:ec:c1:b4:a0:21:7a:73:d0:
                    93:cf:9a:5d:a0:5e:23:4d:fd:b0:66:81:36:a1:60:
                    a7:25:dc:85:6f:ff:00:60:45:20:15:2e:90:95:5f:
                    56:d0:99:83:8e:21:97:f1:31:45:b3:37:4e:b5:cf:
                    c8:50:06:5a:10:06:80:c6:b1:c1:bc:ea:35:bb:1c:
                    a6:8a:99:81:43:b8:8f:5a:0b:24:cd:e5:38:8a:9b:
                    d3:65:cb:a3:5b:60:83:76:f2:74:ca:1b:62:27:6e:
                    c0:4d:2f:22:7a:8c:95:cd:6f:9c:fa:54:b6:4c:e7:
                    da:41:06:52:33:a4:20:9a:bb:4d:8c:17:c8:79:ed:
                    59:b2:14:39:4f:a9:22:86:e9:47:68:8c:4c:fb:15:
                    ce:6f:ae:20:09:a6:5d:83:95:8e:28:1c:33:77:85:
                    41:4d:90:cf:79:5c:fd:0a:af:5e:d1:40:51:2c:22:
                    41:84:7c:96:20:48:d3:c7:7a:f7:9a:80:26:64:3a:
                    dd:72:2a:37:91:69:ea:9c:4a:70:b9:38:fa:c2:39:
                    42:71:5f:a2:3a:af:98:bc:84:15:b6:b2:65:d3:e5:
                    97:e1
                Exponent: 65537 (0x10001)
        X509v3 extensions:
            X509v3 Basic Constraints: 
                CA:FALSE
            X509v3 Subject Key Identifier: 
                96:EE:E8:8C:A7:C8:E1:0B:DD:21:41:EA:F4:F2:AC:68:E2:AF:2E:0D
            X509v3 Authority Key Identifier: 
                keyid:6C:F9:40:08:C6:69:0D:10:EE:67:6D:D2:22:5C:8D:39:47:15:37:AA
                DirName:/CN=VPN
                serial:10:2D:56:4C:3D:2C:3B:2F:17:E2:13:27:B3:D6:ED:A0:8F:55:EB:78
            X509v3 Extended Key Usage: 
                TLS Web Client Authentication
            X509v3 Key Usage: 
                Digital Signature
    Signature Algorithm: sha256WithRSAEncryption
    Signature Value:
        94:c8:10:d7:e1:fd:7b:1d:f9:43:ab:a7:54:bc:31:71:2d:60:
        4f:1f:dc:1e:e3:c3:74:e2:24:fa:78:a0:37:bb:45:a3:a4:ce:
        a0:52:ee:3c:d3:ea:72:d3:b4:5c:68:5e:42:c6:14:99:b3:a1:
        9f:a2:7d:cb:37:33:b6:df:5d:8e:18:c1:a1:22:8c:88:d0:94:
        b7:fe:3f:85:0e:df:f2:63:69:7b:a0:f1:92:4f:b7:43:83:01:
        b2:91:a7:2a:db:f6:1b:8e:81:83:a4:ad:1b:e3:e1:55:a8:bd:
        40:ee:e6:83:95:3b:f3:5d:7d:56:f7:29:c2:37:d3:64:2a:98:
        67:15:af:0a:60:27:da:fa:5c:17:31:b4:18:99:52:01:00:51:
        dc:d2:8c:bc:38:68:41:4d:f3:26:7e:f6:9b:95:8b:fb:75:ee:
        58:98:19:54:7e:db:c6:6b:37:12:65:34:03:16:6c:e0:a6:2f:
        fc:b8:f4:be:1a:c7:13:bc:62:51:65:2d:b9:1d:06:04:04:93:
        dd:8f:f3:93:15:01:9e:58:13:09:ee:bc:73:06:73:76:2d:fb:
        b5:2d:dc:23:f2:eb:b2:33:2a:df:cc:ec:75:ac:a3:5f:29:cb:
        5f:45:36:c2:4f:d7:75:a0:e2:ef:49:4f:5a:11:8f:41:38:6f:
        d3:ee:43:4c
-----BEGIN CERTIFICATE-----
MIIDQzCCAiugAwIBAgIRAPjiu4RvqDWLYm0Sa08FkUgwDQYJKoZIhvcNAQELBQAw
DjEMMAoGA1UEAwwDVlBOMB4XDTI1MDYwODE1MTcxM1oXDTI3MDkxMTE1MTcxM1ow
DzENMAsGA1UEAwwETmljbzCCASIwDQYJKoZIhvcNAQEBBQADggEPADCCAQoCggEB
AKY18Jw9WaMyYjEyExBzVJ+EcKTVXrL8tRo2Vya6Ht6o8HibXuzBtKAhenPQk8+a
XaBeI039sGaBNqFgpyXchW//AGBFIBUukJVfVtCZg44hl/ExRbM3TrXPyFAGWhAG
gMaxwbzqNbscpoqZgUO4j1oLJM3lOIqb02XLo1tgg3bydMobYiduwE0vInqMlc1v
nPpUtkzn2kEGUjOkIJq7TYwXyHntWbIUOU+pIobpR2iMTPsVzm+uIAmmXYOVjigc
M3eFQU2Qz3lc/QqvXtFAUSwiQYR8liBI08d695qAJmQ63XIqN5Fp6pxKcLk4+sI5
QnFfojqvmLyEFbayZdPll+ECAwEAAaOBmjCBlzAJBgNVHRMEAjAAMB0GA1UdDgQW
BBSW7uiMp8jhC90hQer08qxo4q8uDTBJBgNVHSMEQjBAgBRs+UAIxmkNEO5nbdIi
XI05RxU3qqESpBAwDjEMMAoGA1UEAwwDVlBOghQQLVZMPSw7LxfiEyez1u2gj1Xr
eDATBgNVHSUEDDAKBggrBgEFBQcDAjALBgNVHQ8EBAMCB4AwDQYJKoZIhvcNAQEL
BQADggEBAJTIENfh/Xsd+UOrp1S8MXEtYE8f3B7jw3TiJPp4oDe7RaOkzqBS7jzT
6nLTtFxoXkLGFJmzoZ+ifcs3M7bfXY4YwaEijIjQlLf+P4UO3/JjaXug8ZJPt0OD
AbKRpyrb9huOgYOkrRvj4VWovUDu5oOVO/NdfVb3KcI302QqmGcVrwpgJ9r6XBcx
tBiZUgEAUdzSjLw4aEFN8yZ+9puVi/t17liYGVR+28ZrNxJlNAMWbOCmL/y49L4a
xxO8YlFlLbkdBgQEk92P85MVAZ5YEwnuvHMGc3Yt+7Ut3CPy67IzKt/M7HWso18p
y19FNsJP13Wg4u9JT1oRj0E4b9PuQ0w=
-----END CERTIFICATE-----
