Certificate:
    Data:
        Version: 3 (0x2)
        Serial Number:
            23:ad:5d:bd:bd:33:69:48:ef:78:1e:b9:11:fe:c7:64
        Signature Algorithm: sha256WithRSAEncryption
        Issuer: CN=VPN
        Validity
            Not Before: Jun  7 18:29:53 2025 GMT
            Not After : Sep 10 18:29:53 2027 GMT
        Subject: CN=prueba10
        Subject Public Key Info:
            Public Key Algorithm: rsaEncryption
                Public-Key: (2048 bit)
                Modulus:
                    00:be:a5:cd:85:18:90:d1:86:43:22:79:ba:1d:b8:
                    80:e8:2d:f0:9f:05:91:19:f4:d2:7e:db:de:72:66:
                    9e:a2:31:e2:28:e3:bf:25:f1:72:f4:91:c3:94:69:
                    4b:c6:b2:c4:94:30:c4:b9:4f:38:a1:12:08:70:97:
                    d3:9c:68:9b:23:30:d4:89:da:c9:87:ad:d3:29:a6:
                    61:15:f8:63:a4:18:14:30:a4:ff:cd:e9:6e:90:0b:
                    0f:ab:e0:c9:db:32:9c:7e:18:88:d7:be:ec:0a:6b:
                    fb:73:3e:93:22:43:e1:31:ea:b2:88:9f:3b:4f:1d:
                    00:9c:90:4c:bf:c7:1a:9a:46:4e:59:d6:80:05:68:
                    e0:b5:22:f2:80:e6:3a:e7:46:15:75:ee:0d:1c:71:
                    3f:1b:c2:45:2a:62:65:06:b7:6a:81:cd:33:12:a6:
                    85:e8:60:a3:a7:ba:7e:19:9d:09:cb:2b:fb:03:9c:
                    53:7d:0d:66:b2:1c:d4:07:80:b1:9a:a7:47:5e:07:
                    3e:d7:25:34:26:e3:2f:94:80:9c:8d:fb:35:bf:2f:
                    97:86:97:3e:45:2b:e3:1d:0f:1a:d7:b6:6e:b8:7e:
                    c7:10:d5:16:9c:5b:7b:00:e5:b0:df:8f:65:87:0c:
                    42:7d:b2:5d:9e:4c:56:77:5f:db:3a:e5:c0:86:7f:
                    86:17
                Exponent: 65537 (0x10001)
        X509v3 extensions:
            X509v3 Basic Constraints: 
                CA:FALSE
            X509v3 Subject Key Identifier: 
                79:FE:35:2B:1A:5C:5D:10:10:C3:2C:64:AE:0C:E4:EF:EC:3D:62:8B
            X509v3 Authority Key Identifier: 
                keyid:6C:F9:40:08:C6:69:0D:10:EE:67:6D:D2:22:5C:8D:39:47:15:37:AA
                DirName:/CN=VPN
                serial:10:2D:56:4C:3D:2C:3B:2F:17:E2:13:27:B3:D6:ED:A0:8F:55:EB:78
            X509v3 Extended Key Usage: 
                TLS Web Client Authentication
            X509v3 Key Usage: 
                Digital Signature
    Signature Algorithm: sha256WithRSAEncryption
    Signature Value:
        4b:1f:0e:7c:fe:be:f7:1e:f0:29:4e:d4:4b:8c:e2:d6:00:14:
        13:ab:1f:99:96:65:c2:bb:32:63:49:35:e6:ba:55:86:c8:d0:
        51:a8:77:d3:c7:90:3c:a4:cc:8e:8c:27:0e:3d:69:d0:d1:88:
        a9:54:c1:8b:55:4e:c6:22:e4:f4:6a:ac:b9:5a:3a:9c:7c:54:
        e3:2e:33:20:25:f0:88:29:8e:8a:aa:45:6f:62:1a:5c:dc:46:
        f9:3e:56:fa:2b:ae:66:12:41:cc:a0:df:cd:70:65:f4:5e:c2:
        88:24:07:c5:4d:f1:86:a5:aa:47:f2:b8:dd:f9:1a:2d:b9:57:
        28:89:b8:e3:aa:91:2c:bb:cd:e3:f2:97:20:88:e8:5a:49:57:
        37:ff:38:aa:63:d2:61:77:bc:79:a8:16:41:16:0b:7e:3b:f9:
        79:0e:91:c8:e4:ae:45:db:54:ae:e7:d2:ec:37:78:8c:42:32:
        2d:ba:0a:b7:1d:52:5e:82:62:e0:d1:28:41:66:9e:b3:2c:64:
        b2:a9:53:b1:3f:53:22:9c:10:f9:ce:80:1a:f2:5e:d2:10:22:
        90:cd:de:60:03:cb:50:4a:a6:8b:25:27:2e:49:92:a3:a0:19:
        bc:08:dc:69:8a:cf:c4:83:8d:4d:d9:19:a5:85:8a:92:b4:a4:
        9a:0a:00:ae
-----BEGIN CERTIFICATE-----
MIIDRjCCAi6gAwIBAgIQI61dvb0zaUjveB65Ef7HZDANBgkqhkiG9w0BAQsFADAO
MQwwCgYDVQQDDANWUE4wHhcNMjUwNjA3MTgyOTUzWhcNMjcwOTEwMTgyOTUzWjAT
MREwDwYDVQQDDAhwcnVlYmExMDCCASIwDQYJKoZIhvcNAQEBBQADggEPADCCAQoC
ggEBAL6lzYUYkNGGQyJ5uh24gOgt8J8FkRn00n7b3nJmnqIx4ijjvyXxcvSRw5Rp
S8ayxJQwxLlPOKESCHCX05xomyMw1InayYet0ymmYRX4Y6QYFDCk/83pbpALD6vg
ydsynH4YiNe+7Apr+3M+kyJD4THqsoifO08dAJyQTL/HGppGTlnWgAVo4LUi8oDm
OudGFXXuDRxxPxvCRSpiZQa3aoHNMxKmhehgo6e6fhmdCcsr+wOcU30NZrIc1AeA
sZqnR14HPtclNCbjL5SAnI37Nb8vl4aXPkUr4x0PGte2brh+xxDVFpxbewDlsN+P
ZYcMQn2yXZ5MVndf2zrlwIZ/hhcCAwEAAaOBmjCBlzAJBgNVHRMEAjAAMB0GA1Ud
DgQWBBR5/jUrGlxdEBDDLGSuDOTv7D1iizBJBgNVHSMEQjBAgBRs+UAIxmkNEO5n
bdIiXI05RxU3qqESpBAwDjEMMAoGA1UEAwwDVlBOghQQLVZMPSw7LxfiEyez1u2g
j1XreDATBgNVHSUEDDAKBggrBgEFBQcDAjALBgNVHQ8EBAMCB4AwDQYJKoZIhvcN
AQELBQADggEBAEsfDnz+vvce8ClO1EuM4tYAFBOrH5mWZcK7MmNJNea6VYbI0FGo
d9PHkDykzI6MJw49adDRiKlUwYtVTsYi5PRqrLlaOpx8VOMuMyAl8IgpjoqqRW9i
GlzcRvk+VvorrmYSQcyg381wZfRewogkB8VN8YalqkfyuN35Gi25VyiJuOOqkSy7
zePylyCI6FpJVzf/OKpj0mF3vHmoFkEWC347+XkOkcjkrkXbVK7n0uw3eIxCMi26
CrcdUl6CYuDRKEFmnrMsZLKpU7E/UyKcEPnOgBryXtIQIpDN3mADy1BKposlJy5J
kqOgGbwI3GmKz8SDjU3ZGaWFipK0pJoKAK4=
-----END CERTIFICATE-----
