Certificate:
    Data:
        Version: 3 (0x2)
        Serial Number:
            0e:dc:84:6a:65:ed:4e:df:56:c5:b0:9d:36:f3:7d:e0
        Signature Algorithm: sha256WithRSAEncryption
        Issuer: CN=VPN
        Validity
            Not Before: Jun  9 10:47:57 2025 GMT
            Not After : Sep 12 10:47:57 2027 GMT
        Subject: CN=cliente
        Subject Public Key Info:
            Public Key Algorithm: rsaEncryption
                Public-Key: (2048 bit)
                Modulus:
                    00:9f:6c:02:84:6c:ba:2e:91:ac:d0:a7:c7:72:33:
                    ae:28:61:ca:19:79:2d:a2:fb:57:a4:ae:6c:87:d8:
                    3e:b0:ef:80:87:c9:35:8d:fc:cb:28:42:16:f3:58:
                    15:3e:7b:da:35:4d:59:a6:af:4f:9d:8d:00:6f:7e:
                    9c:30:ac:51:96:77:48:af:0c:bf:08:34:e8:49:50:
                    9b:6f:fe:46:7a:71:f6:36:56:5c:eb:20:57:5f:71:
                    80:a8:bf:60:f5:66:3b:64:82:de:14:39:89:a7:b9:
                    39:34:b2:3b:17:f8:de:47:7e:d5:71:83:b0:f8:64:
                    47:82:dc:88:ca:19:e8:66:a2:79:c6:6b:f3:42:f9:
                    dc:d8:66:ef:9c:4f:39:7a:34:ad:93:ac:1b:7b:64:
                    59:50:a8:59:b8:db:e8:73:01:5a:69:ac:96:db:39:
                    b6:c5:7c:83:fc:ba:88:dc:8f:27:17:59:d0:c8:f9:
                    62:be:a9:30:f7:d4:f6:71:ce:07:4c:af:67:ce:77:
                    eb:76:35:4c:1a:ce:c5:57:9e:bc:e7:61:6d:5f:ea:
                    ca:2e:99:17:96:51:d6:d2:9c:3c:3f:a4:a8:de:39:
                    91:5d:9d:f3:f3:d2:34:c7:f7:8e:86:af:c6:47:e0:
                    94:4c:b1:8c:e7:b4:0a:0a:f4:51:df:3a:54:8c:c2:
                    bb:1f
                Exponent: 65537 (0x10001)
        X509v3 extensions:
            X509v3 Basic Constraints: 
                CA:FALSE
            X509v3 Subject Key Identifier: 
                01:FB:5B:17:22:4D:83:29:23:BB:02:70:E7:E6:9D:0B:0D:D9:9C:D9
            X509v3 Authority Key Identifier: 
                keyid:6C:F9:40:08:C6:69:0D:10:EE:67:6D:D2:22:5C:8D:39:47:15:37:AA
                DirName:/CN=VPN
                serial:10:2D:56:4C:3D:2C:3B:2F:17:E2:13:27:B3:D6:ED:A0:8F:55:EB:78
            X509v3 Extended Key Usage: 
                TLS Web Client Authentication
            X509v3 Key Usage: 
                Digital Signature
    Signature Algorithm: sha256WithRSAEncryption
    Signature Value:
        50:82:4d:7c:fd:66:71:20:6a:40:1d:9d:cb:3a:fc:8b:12:a7:
        c1:c4:4e:37:35:11:6d:1d:98:84:1b:e2:29:f6:2d:f7:45:66:
        56:f9:4f:5a:ba:a0:ba:53:ba:d0:07:80:50:94:50:08:2c:86:
        16:4b:6e:ed:66:bb:82:10:a6:96:b1:72:2f:fd:ea:c3:4d:68:
        3b:97:2f:e7:34:ff:cf:18:25:d4:7c:81:e1:40:92:2a:ac:a2:
        16:1f:18:40:88:62:89:36:a2:56:ad:5f:dd:39:6e:5a:1c:7f:
        e6:8a:bc:a4:13:fc:0e:62:26:b3:20:0b:bf:61:93:ac:28:8f:
        27:e7:2c:48:af:3e:67:c3:4f:72:4c:16:7d:ca:06:3f:1c:94:
        d2:69:01:44:31:e2:6d:d5:3d:dc:80:6d:26:9f:2f:c7:c9:f7:
        29:03:0f:c2:b8:f7:ad:11:77:e5:18:5e:d5:c8:45:9f:b0:e6:
        12:ff:b8:d6:18:a7:ca:01:90:01:4c:eb:db:12:67:7a:64:5e:
        e5:01:ec:67:ba:0f:f4:60:53:49:43:c1:87:90:4f:ea:4f:13:
        1d:72:8b:05:6e:c2:4e:1f:be:0a:9f:6f:94:e7:97:28:c9:b8:
        a6:5e:32:93:50:1a:05:a2:db:f0:0e:e2:d6:c1:fc:fd:ca:77:
        42:60:8a:8e
-----BEGIN CERTIFICATE-----
MIIDRTCCAi2gAwIBAgIQDtyEamXtTt9WxbCdNvN94DANBgkqhkiG9w0BAQsFADAO
MQwwCgYDVQQDDANWUE4wHhcNMjUwNjA5MTA0NzU3WhcNMjcwOTEyMTA0NzU3WjAS
MRAwDgYDVQQDDAdjbGllbnRlMIIBIjANBgkqhkiG9w0BAQEFAAOCAQ8AMIIBCgKC
AQEAn2wChGy6LpGs0KfHcjOuKGHKGXktovtXpK5sh9g+sO+Ah8k1jfzLKEIW81gV
PnvaNU1Zpq9PnY0Ab36cMKxRlndIrwy/CDToSVCbb/5GenH2NlZc6yBXX3GAqL9g
9WY7ZILeFDmJp7k5NLI7F/jeR37VcYOw+GRHgtyIyhnoZqJ5xmvzQvnc2GbvnE85
ejStk6wbe2RZUKhZuNvocwFaaayW2zm2xXyD/LqI3I8nF1nQyPlivqkw99T2cc4H
TK9nznfrdjVMGs7FV56852FtX+rKLpkXllHW0pw8P6So3jmRXZ3z89I0x/eOhq/G
R+CUTLGM57QKCvRR3zpUjMK7HwIDAQABo4GaMIGXMAkGA1UdEwQCMAAwHQYDVR0O
BBYEFAH7WxciTYMpI7sCcOfmnQsN2ZzZMEkGA1UdIwRCMECAFGz5QAjGaQ0Q7mdt
0iJcjTlHFTeqoRKkEDAOMQwwCgYDVQQDDANWUE6CFBAtVkw9LDsvF+ITJ7PW7aCP
Vet4MBMGA1UdJQQMMAoGCCsGAQUFBwMCMAsGA1UdDwQEAwIHgDANBgkqhkiG9w0B
AQsFAAOCAQEAUIJNfP1mcSBqQB2dyzr8ixKnwcRONzURbR2YhBviKfYt90VmVvlP
WrqgulO60AeAUJRQCCyGFktu7Wa7ghCmlrFyL/3qw01oO5cv5zT/zxgl1HyB4UCS
KqyiFh8YQIhiiTaiVq1f3TluWhx/5oq8pBP8DmImsyALv2GTrCiPJ+csSK8+Z8NP
ckwWfcoGPxyU0mkBRDHibdU93IBtJp8vx8n3KQMPwrj3rRF35Rhe1chFn7DmEv+4
1hinygGQAUzr2xJnemRe5QHsZ7oP9GBTSUPBh5BP6k8THXKLBW7CTh++Cp9vlOeX
KMm4pl4yk1AaBaLb8A7i1sH8/cp3QmCKjg==
-----END CERTIFICATE-----
