Certificate:
    Data:
        Version: 3 (0x2)
        Serial Number:
            f3:9f:de:56:81:d9:5e:bb:e7:83:bd:36:df:24:8d:84
        Signature Algorithm: sha256WithRSAEncryption
        Issuer: CN=VPN
        Validity
            Not Before: May 13 13:28:10 2025 GMT
            Not After : Aug 16 13:28:10 2027 GMT
        Subject: CN=prueba9
        Subject Public Key Info:
            Public Key Algorithm: rsaEncryption
                Public-Key: (2048 bit)
                Modulus:
                    00:e4:15:e1:f9:6d:70:aa:98:6b:21:5f:60:62:f7:
                    6c:e8:34:f8:a2:b0:63:1d:e5:78:0a:e6:d4:d2:e5:
                    85:13:b9:0e:65:39:65:3f:64:0c:b2:28:0a:ca:9f:
                    68:fe:b7:f6:28:8a:30:bc:f5:78:cb:40:03:84:65:
                    a1:71:2f:ca:b6:fc:d5:04:e6:41:a5:d7:01:28:94:
                    13:fc:8e:a5:1b:82:31:e4:c1:8e:fb:d6:64:64:d1:
                    87:b8:f8:b4:22:d0:74:a0:1c:9a:18:0c:7f:49:9f:
                    b0:f3:4b:4a:8e:42:47:bb:51:e6:f9:84:4c:4e:de:
                    dc:9c:f3:61:a8:26:44:ae:81:c9:eb:71:01:7d:d1:
                    fd:0e:89:cb:a7:ef:ac:b1:fa:fe:f3:f0:05:67:7b:
                    ea:95:65:1b:23:49:f6:56:ff:b1:24:20:e8:36:b3:
                    b7:ff:e6:b3:8f:40:a8:9b:7d:2e:5c:9b:c6:00:7f:
                    d2:18:41:7a:8a:6c:65:75:57:38:79:79:4b:f0:90:
                    ab:d7:da:a7:55:6b:52:3c:d6:62:78:68:d0:60:06:
                    1c:fa:c5:6a:2e:97:b2:e2:05:bb:86:af:68:43:d5:
                    f1:19:8f:a0:d8:ea:d0:a8:c8:49:97:b7:3e:3b:80:
                    92:c3:94:fb:62:47:8e:0a:be:88:79:ac:97:f3:e5:
                    e4:49
                Exponent: 65537 (0x10001)
        X509v3 extensions:
            X509v3 Basic Constraints: 
                CA:FALSE
            X509v3 Subject Key Identifier: 
                2E:80:B0:46:C3:42:8E:86:AF:3E:1F:BB:C0:2B:A5:99:64:BA:BD:9E
            X509v3 Authority Key Identifier: 
                keyid:6C:F9:40:08:C6:69:0D:10:EE:67:6D:D2:22:5C:8D:39:47:15:37:AA
                DirName:/CN=VPN
                serial:10:2D:56:4C:3D:2C:3B:2F:17:E2:13:27:B3:D6:ED:A0:8F:55:EB:78
            X509v3 Extended Key Usage: 
                TLS Web Client Authentication
            X509v3 Key Usage: 
                Digital Signature
    Signature Algorithm: sha256WithRSAEncryption
    Signature Value:
        56:bf:c5:7f:32:57:10:3c:1d:92:4f:5a:9c:9e:12:67:9e:17:
        7a:d1:d2:3c:07:9b:1c:d7:dd:62:ea:67:a7:eb:49:1b:59:ea:
        a1:c3:e4:09:cb:05:44:7b:22:f0:9b:a7:33:11:b1:82:d6:80:
        48:87:d7:f3:3d:72:5c:ed:d5:d3:de:38:76:4e:ef:ef:fd:ad:
        91:00:30:93:66:37:80:df:6c:05:49:b9:43:ad:2b:35:0b:91:
        39:a3:b4:2e:bc:70:aa:26:87:fd:91:a0:55:fb:0b:5d:eb:39:
        1c:de:28:cf:ca:c8:16:cc:1a:a1:ae:70:aa:77:46:68:00:e1:
        01:06:8c:81:83:8c:94:91:d0:50:49:28:6a:04:f8:98:3f:46:
        42:09:4c:5b:80:97:dd:d7:b4:a9:f6:e4:32:62:b5:42:86:b5:
        9e:ea:54:a5:e0:55:9c:e5:cb:57:f8:a3:96:79:e3:9e:d8:da:
        bd:11:b6:53:3f:43:c1:dd:26:5d:5e:bf:f1:6b:13:d1:5a:4b:
        aa:45:ab:f6:ac:eb:c1:a1:b3:08:05:13:c2:53:4f:e6:d4:85:
        bf:10:67:23:5e:bf:89:5f:da:ed:a9:20:ca:b5:40:f9:81:68:
        f5:e1:e3:eb:1f:af:16:db:9c:55:85:d0:7e:35:22:b6:2e:44:
        7d:d0:05:a9
-----BEGIN CERTIFICATE-----
MIIDRjCCAi6gAwIBAgIRAPOf3laB2V6754O9Nt8kjYQwDQYJKoZIhvcNAQELBQAw
DjEMMAoGA1UEAwwDVlBOMB4XDTI1MDUxMzEzMjgxMFoXDTI3MDgxNjEzMjgxMFow
EjEQMA4GA1UEAwwHcHJ1ZWJhOTCCASIwDQYJKoZIhvcNAQEBBQADggEPADCCAQoC
ggEBAOQV4fltcKqYayFfYGL3bOg0+KKwYx3leArm1NLlhRO5DmU5ZT9kDLIoCsqf
aP639iiKMLz1eMtAA4RloXEvyrb81QTmQaXXASiUE/yOpRuCMeTBjvvWZGTRh7j4
tCLQdKAcmhgMf0mfsPNLSo5CR7tR5vmETE7e3JzzYagmRK6ByetxAX3R/Q6Jy6fv
rLH6/vPwBWd76pVlGyNJ9lb/sSQg6Dazt//ms49AqJt9LlybxgB/0hhBeopsZXVX
OHl5S/CQq9fap1VrUjzWYnho0GAGHPrFai6XsuIFu4avaEPV8RmPoNjq0KjISZe3
PjuAksOU+2JHjgq+iHmsl/Pl5EkCAwEAAaOBmjCBlzAJBgNVHRMEAjAAMB0GA1Ud
DgQWBBQugLBGw0KOhq8+H7vAK6WZZLq9njBJBgNVHSMEQjBAgBRs+UAIxmkNEO5n
bdIiXI05RxU3qqESpBAwDjEMMAoGA1UEAwwDVlBOghQQLVZMPSw7LxfiEyez1u2g
j1XreDATBgNVHSUEDDAKBggrBgEFBQcDAjALBgNVHQ8EBAMCB4AwDQYJKoZIhvcN
AQELBQADggEBAFa/xX8yVxA8HZJPWpyeEmeeF3rR0jwHmxzX3WLqZ6frSRtZ6qHD
5AnLBUR7IvCbpzMRsYLWgEiH1/M9clzt1dPeOHZO7+/9rZEAMJNmN4DfbAVJuUOt
KzULkTmjtC68cKomh/2RoFX7C13rORzeKM/KyBbMGqGucKp3RmgA4QEGjIGDjJSR
0FBJKGoE+Jg/RkIJTFuAl93XtKn25DJitUKGtZ7qVKXgVZzly1f4o5Z5457Y2r0R
tlM/Q8HdJl1ev/FrE9FaS6pFq/as68GhswgFE8JTT+bUhb8QZyNev4lf2u2pIMq1
QPmBaPXh4+sfrxbbnFWF0H41IrYuRH3QBak=
-----END CERTIFICATE-----
