Certificate:
    Data:
        Version: 3 (0x2)
        Serial Number:
            f1:9a:b6:c8:7e:0a:0f:9e:e3:3a:70:03:52:fb:67:38
        Signature Algorithm: sha256WithRSAEncryption
        Issuer: CN=VPN
        Validity
            Not Before: Apr 27 14:34:07 2025 GMT
            Not After : Jul 31 14:34:07 2027 GMT
        Subject: CN=VPN
        Subject Public Key Info:
            Public Key Algorithm: rsaEncryption
                Public-Key: (2048 bit)
                Modulus:
                    00:b1:74:2b:17:e5:79:26:24:c1:9a:47:b2:99:94:
                    66:41:a3:ce:55:a5:7b:32:3b:0d:d4:d2:36:0c:8a:
                    9c:f5:d1:4e:4e:34:47:91:19:26:3e:6b:23:c8:59:
                    cd:ad:be:bd:05:c6:d2:c5:12:ab:10:16:bc:43:ce:
                    b4:8e:21:a7:3f:69:e8:be:5b:1d:0b:c8:94:17:18:
                    84:09:82:6d:78:b6:02:53:54:d8:09:17:1a:cd:99:
                    ba:9c:bb:f9:1c:5e:21:4d:23:28:89:41:12:8f:3f:
                    04:fc:b8:a9:89:5b:ca:4b:f8:99:d3:89:cf:ae:78:
                    fa:7e:3e:32:41:98:10:1d:6b:9d:a0:54:a5:24:92:
                    c4:90:a7:e5:b7:3b:f0:08:26:c0:8c:03:f2:db:60:
                    c3:bc:85:13:f0:bb:ab:97:f9:47:6b:6c:ee:c5:c3:
                    d8:5d:66:c0:07:d2:9e:f8:6e:2f:64:c9:f6:99:6e:
                    7b:11:3c:1d:2a:ff:77:5c:68:52:5e:21:fa:7d:71:
                    d5:2c:11:82:40:7c:2e:e8:01:82:64:49:56:77:d5:
                    9c:be:ba:ff:99:2a:f7:c3:51:90:4b:fa:ff:23:8a:
                    b0:5d:4b:de:3c:2e:43:47:a8:89:5e:e9:ce:6a:8e:
                    28:d1:f6:e9:00:36:de:a8:75:3f:13:c6:15:f4:52:
                    96:25
                Exponent: 65537 (0x10001)
        X509v3 extensions:
            X509v3 Basic Constraints: 
                CA:FALSE
            X509v3 Subject Key Identifier: 
                26:52:41:94:D3:D4:54:59:9F:71:24:40:0B:B1:64:B0:89:2D:AD:F8
            X509v3 Authority Key Identifier: 
                keyid:6C:F9:40:08:C6:69:0D:10:EE:67:6D:D2:22:5C:8D:39:47:15:37:AA
                DirName:/CN=VPN
                serial:10:2D:56:4C:3D:2C:3B:2F:17:E2:13:27:B3:D6:ED:A0:8F:55:EB:78
            X509v3 Extended Key Usage: 
                TLS Web Server Authentication
            X509v3 Key Usage: 
                Digital Signature, Key Encipherment
            X509v3 Subject Alternative Name: 
                DNS:VPN
    Signature Algorithm: sha256WithRSAEncryption
    Signature Value:
        46:51:87:1b:a9:4f:c3:0b:55:d7:44:9f:9a:2c:7f:27:70:ba:
        cd:5f:93:54:c3:4b:26:4d:48:ec:6d:44:56:41:46:04:d4:b8:
        fa:05:af:d6:61:f4:57:1e:3e:97:d8:eb:f5:1f:a0:82:d6:26:
        a4:e3:07:a6:9a:87:fb:be:87:2b:aa:81:84:3e:6c:3f:2b:99:
        74:f6:f8:2c:e5:dd:5e:ef:d8:b9:57:b9:31:81:18:52:62:b4:
        f4:d5:35:ea:fc:10:23:21:7b:d4:d9:48:47:67:1b:b5:67:68:
        68:7c:6d:8d:ea:f8:22:44:94:f4:70:90:62:68:f3:0f:91:ac:
        99:22:ac:22:89:e0:e3:b5:9f:f7:77:94:4e:57:b4:e8:57:0a:
        8f:78:1e:a7:b3:cd:3c:b3:9f:ae:f7:ae:4f:22:e1:fb:99:e4:
        3a:ed:aa:75:7b:51:b1:b8:3f:dd:d3:7c:dd:74:63:6b:1f:a2:
        f5:ca:44:8b:ee:79:6f:1f:f2:5c:41:5c:98:58:26:c0:67:ac:
        4c:c1:f7:eb:bc:0e:88:94:7d:b7:1f:ef:9d:35:8f:7d:81:cd:
        9b:c0:75:9a:08:b6:55:dd:61:b8:10:f9:07:fc:59:75:88:f1:
        3f:55:eb:7a:38:c6:ca:41:7f:61:a3:4b:21:f9:4d:46:f3:20:
        a2:1c:1d:5b
-----BEGIN CERTIFICATE-----
MIIDUjCCAjqgAwIBAgIRAPGatsh+Cg+e4zpwA1L7ZzgwDQYJKoZIhvcNAQELBQAw
DjEMMAoGA1UEAwwDVlBOMB4XDTI1MDQyNzE0MzQwN1oXDTI3MDczMTE0MzQwN1ow
DjEMMAoGA1UEAwwDVlBOMIIBIjANBgkqhkiG9w0BAQEFAAOCAQ8AMIIBCgKCAQEA
sXQrF+V5JiTBmkeymZRmQaPOVaV7MjsN1NI2DIqc9dFOTjRHkRkmPmsjyFnNrb69
BcbSxRKrEBa8Q860jiGnP2novlsdC8iUFxiECYJteLYCU1TYCRcazZm6nLv5HF4h
TSMoiUESjz8E/LipiVvKS/iZ04nPrnj6fj4yQZgQHWudoFSlJJLEkKfltzvwCCbA
jAPy22DDvIUT8Lurl/lHa2zuxcPYXWbAB9Ke+G4vZMn2mW57ETwdKv93XGhSXiH6
fXHVLBGCQHwu6AGCZElWd9Wcvrr/mSr3w1GQS/r/I4qwXUvePC5DR6iJXunOao4o
0fbpADbeqHU/E8YV9FKWJQIDAQABo4GqMIGnMAkGA1UdEwQCMAAwHQYDVR0OBBYE
FCZSQZTT1FRZn3EkQAuxZLCJLa34MEkGA1UdIwRCMECAFGz5QAjGaQ0Q7mdt0iJc
jTlHFTeqoRKkEDAOMQwwCgYDVQQDDANWUE6CFBAtVkw9LDsvF+ITJ7PW7aCPVet4
MBMGA1UdJQQMMAoGCCsGAQUFBwMBMAsGA1UdDwQEAwIFoDAOBgNVHREEBzAFggNW
UE4wDQYJKoZIhvcNAQELBQADggEBAEZRhxupT8MLVddEn5osfydwus1fk1TDSyZN
SOxtRFZBRgTUuPoFr9Zh9FcePpfY6/UfoILWJqTjB6aah/u+hyuqgYQ+bD8rmXT2
+Czl3V7v2LlXuTGBGFJitPTVNer8ECMhe9TZSEdnG7VnaGh8bY3q+CJElPRwkGJo
8w+RrJkirCKJ4OO1n/d3lE5XtOhXCo94HqezzTyzn673rk8i4fuZ5DrtqnV7UbG4
P93TfN10Y2sfovXKRIvueW8f8lxBXJhYJsBnrEzB9+u8DoiUfbcf7501j32BzZvA
dZoItlXdYbgQ+Qf8WXWI8T9V63o4xspBf2GjSyH5TUbzIKIcHVs=
-----END CERTIFICATE-----
