Certificate:
    Data:
        Version: 3 (0x2)
        Serial Number:
            1e:67:9f:65:56:f2:f6:d4:31:1e:84:8b:1c:c6:f2:03
        Signature Algorithm: sha256WithRSAEncryption
        Issuer: CN=VPN
        Validity
            Not Before: May 10 15:28:40 2025 GMT
            Not After : Aug 13 15:28:40 2027 GMT
        Subject: CN=natalia
        Subject Public Key Info:
            Public Key Algorithm: rsaEncryption
                Public-Key: (2048 bit)
                Modulus:
                    00:9a:95:41:f3:7e:7e:12:24:81:a4:77:e6:26:0d:
                    f9:ac:64:1c:42:35:68:cd:b4:67:3f:d4:a9:c6:a7:
                    28:47:02:ca:f2:62:14:2e:1c:97:45:3a:77:84:b4:
                    f5:f9:cb:b2:1f:a7:6f:66:ed:e0:b1:dc:d2:08:19:
                    24:05:5d:e8:dc:fe:53:c2:7d:af:01:89:f8:07:94:
                    1a:ce:e7:98:43:08:48:d0:d7:31:aa:66:52:55:03:
                    73:80:c5:1e:ac:6c:e7:5d:33:c8:40:01:f5:f4:7f:
                    91:3e:5d:5c:35:83:ea:60:95:54:4a:41:51:6d:a8:
                    11:a8:5a:82:aa:83:ac:24:d5:13:c7:2f:f5:66:d3:
                    4f:ad:28:50:81:b6:0e:49:ab:12:7c:ee:50:bd:71:
                    2a:4d:1d:54:e8:66:98:43:92:d8:0d:d4:6b:19:9f:
                    cd:64:e1:b5:15:d5:9e:fe:44:8d:98:b3:c3:a6:ba:
                    8e:d1:d1:d3:eb:44:5b:58:74:33:c8:a2:bf:9c:2d:
                    ed:51:ae:2e:c8:88:4e:51:d4:5e:6d:21:bf:c1:2c:
                    ea:57:d8:93:5b:60:c1:f8:f3:a6:c6:c3:f9:07:56:
                    f7:61:8b:73:42:b6:48:3c:d2:e5:13:20:de:af:a2:
                    48:75:a5:66:b0:96:63:b3:8e:66:58:8c:bd:58:54:
                    ff:87
                Exponent: 65537 (0x10001)
        X509v3 extensions:
            X509v3 Basic Constraints: 
                CA:FALSE
            X509v3 Subject Key Identifier: 
                78:1A:CE:5F:12:10:62:DF:5D:99:AD:09:3B:54:3E:19:C2:9A:5A:A7
            X509v3 Authority Key Identifier: 
                keyid:6C:F9:40:08:C6:69:0D:10:EE:67:6D:D2:22:5C:8D:39:47:15:37:AA
                DirName:/CN=VPN
                serial:10:2D:56:4C:3D:2C:3B:2F:17:E2:13:27:B3:D6:ED:A0:8F:55:EB:78
            X509v3 Extended Key Usage: 
                TLS Web Client Authentication
            X509v3 Key Usage: 
                Digital Signature
    Signature Algorithm: sha256WithRSAEncryption
    Signature Value:
        74:ee:15:79:c5:b9:2e:eb:21:04:28:b6:9a:c0:0b:30:89:50:
        e2:b6:9b:1b:ba:8e:d2:cb:8a:f6:d3:5d:e6:47:ea:21:7b:9c:
        49:42:6c:c6:fd:06:d1:bf:96:cb:54:41:bd:a7:8f:2c:1a:fb:
        db:f4:90:30:9e:ef:95:45:30:e2:ec:1a:e8:fa:35:e2:2f:38:
        3d:a5:74:42:11:8b:be:3c:a1:55:2a:71:64:e2:75:f3:a9:80:
        70:80:7d:49:d3:bd:57:ab:ee:12:ae:8a:be:eb:c1:bd:2f:56:
        7e:7d:23:c9:fd:99:bf:4b:40:51:d9:08:7b:6f:6f:67:dd:80:
        0f:96:12:0a:fa:dd:e7:10:a5:d6:9d:f2:f2:73:bf:79:23:f1:
        3b:eb:df:a2:67:bc:d8:cf:82:ce:e4:eb:1e:15:82:60:0b:3f:
        08:51:6f:1b:4e:af:af:3f:85:ad:7c:ad:df:10:e8:c8:b2:da:
        f8:9c:be:a5:bb:ea:e5:40:88:f2:08:94:80:a4:96:62:79:e9:
        47:57:52:75:ef:a2:ab:b2:8f:a1:39:dd:0e:d5:a0:d3:68:21:
        06:66:d8:cc:30:fb:96:f8:33:be:e9:ba:46:ba:c0:43:d5:b2:
        34:d9:5d:2c:35:74:57:91:03:f3:b5:ac:14:81:96:1a:01:0f:
        23:6f:db:99
-----BEGIN CERTIFICATE-----
MIIDRTCCAi2gAwIBAgIQHmefZVby9tQxHoSLHMbyAzANBgkqhkiG9w0BAQsFADAO
MQwwCgYDVQQDDANWUE4wHhcNMjUwNTEwMTUyODQwWhcNMjcwODEzMTUyODQwWjAS
MRAwDgYDVQQDDAduYXRhbGlhMIIBIjANBgkqhkiG9w0BAQEFAAOCAQ8AMIIBCgKC
AQEAmpVB835+EiSBpHfmJg35rGQcQjVozbRnP9SpxqcoRwLK8mIULhyXRTp3hLT1
+cuyH6dvZu3gsdzSCBkkBV3o3P5Twn2vAYn4B5QazueYQwhI0NcxqmZSVQNzgMUe
rGznXTPIQAH19H+RPl1cNYPqYJVUSkFRbagRqFqCqoOsJNUTxy/1ZtNPrShQgbYO
SasSfO5QvXEqTR1U6GaYQ5LYDdRrGZ/NZOG1FdWe/kSNmLPDprqO0dHT60RbWHQz
yKK/nC3tUa4uyIhOUdRebSG/wSzqV9iTW2DB+POmxsP5B1b3YYtzQrZIPNLlEyDe
r6JIdaVmsJZjs45mWIy9WFT/hwIDAQABo4GaMIGXMAkGA1UdEwQCMAAwHQYDVR0O
BBYEFHgazl8SEGLfXZmtCTtUPhnCmlqnMEkGA1UdIwRCMECAFGz5QAjGaQ0Q7mdt
0iJcjTlHFTeqoRKkEDAOMQwwCgYDVQQDDANWUE6CFBAtVkw9LDsvF+ITJ7PW7aCP
Vet4MBMGA1UdJQQMMAoGCCsGAQUFBwMCMAsGA1UdDwQEAwIHgDANBgkqhkiG9w0B
AQsFAAOCAQEAdO4VecW5LushBCi2msALMIlQ4rabG7qO0suK9tNd5kfqIXucSUJs
xv0G0b+Wy1RBvaePLBr72/SQMJ7vlUUw4uwa6Po14i84PaV0QhGLvjyhVSpxZOJ1
86mAcIB9SdO9V6vuEq6KvuvBvS9Wfn0jyf2Zv0tAUdkIe29vZ92AD5YSCvrd5xCl
1p3y8nO/eSPxO+vfome82M+CzuTrHhWCYAs/CFFvG06vrz+FrXyt3xDoyLLa+Jy+
pbvq5UCI8giUgKSWYnnpR1dSde+iq7KPoTndDtWg02ghBmbYzDD7lvgzvum6RrrA
Q9WyNNldLDV0V5ED87WsFIGWGgEPI2/bmQ==
-----END CERTIFICATE-----
