Certificate:
    Data:
        Version: 3 (0x2)
        Serial Number:
            22:0f:36:52:0c:96:f6:44:d9:cb:f8:e5:d0:c3:ec:10
        Signature Algorithm: sha256WithRSAEncryption
        Issuer: CN=VPN
        Validity
            Not Before: Apr 27 14:42:57 2025 GMT
            Not After : Jul 31 14:42:57 2027 GMT
        Subject: CN=VPN
        Subject Public Key Info:
            Public Key Algorithm: rsaEncryption
                Public-Key: (2048 bit)
                Modulus:
                    00:a5:78:87:e0:71:1a:dc:7b:12:c6:d9:d8:43:4e:
                    05:11:89:81:45:db:53:3e:f2:c0:d5:79:ce:fe:91:
                    9a:a2:b7:67:9d:36:46:9b:d8:22:c8:85:73:71:f9:
                    55:57:0e:a8:35:9a:94:65:56:ea:99:7f:5a:49:1c:
                    b8:5c:e0:d1:aa:fe:76:13:f2:df:4b:5e:b1:5f:42:
                    12:0a:cd:ba:11:fb:91:9f:0b:00:52:ac:c4:10:b1:
                    9e:14:15:e1:4c:2b:0e:71:af:fe:a8:4b:ef:53:50:
                    b2:02:af:5a:cc:f8:71:5c:41:ff:6e:bc:10:2e:64:
                    18:fe:0b:5c:bf:df:74:f9:48:d2:74:4c:d8:2d:b1:
                    5c:32:52:e7:3e:bc:db:a1:4b:a7:40:47:8c:58:d9:
                    fd:fe:6d:fc:10:85:a3:c6:8d:44:02:5f:22:f1:2a:
                    2a:44:dc:87:9e:d7:22:15:a1:9e:33:af:d0:e4:70:
                    da:1e:bc:11:65:7f:e9:b4:02:1e:65:34:bb:35:75:
                    65:fa:fe:59:b5:a9:1b:a2:87:d8:bd:30:7f:6b:4b:
                    96:86:29:b9:3a:be:15:f2:90:62:11:01:94:8f:73:
                    64:d6:1e:25:fc:37:cf:83:64:77:f1:7e:5d:c8:72:
                    02:c7:4b:09:c7:d1:da:61:77:37:fb:1b:7c:e2:52:
                    1e:23
                Exponent: 65537 (0x10001)
        X509v3 extensions:
            X509v3 Basic Constraints: 
                CA:FALSE
            X509v3 Subject Key Identifier: 
                FF:A6:8C:37:DD:04:4E:FB:B7:8E:99:DC:D1:10:05:F2:55:E2:00:8C
            X509v3 Authority Key Identifier: 
                keyid:6C:F9:40:08:C6:69:0D:10:EE:67:6D:D2:22:5C:8D:39:47:15:37:AA
                DirName:/CN=VPN
                serial:10:2D:56:4C:3D:2C:3B:2F:17:E2:13:27:B3:D6:ED:A0:8F:55:EB:78
            X509v3 Extended Key Usage: 
                TLS Web Client Authentication
            X509v3 Key Usage: 
                Digital Signature
    Signature Algorithm: sha256WithRSAEncryption
    Signature Value:
        7b:af:1b:a7:f0:ce:b7:dc:c2:81:21:b9:3c:18:d7:51:b0:2a:
        42:22:85:e5:8c:48:2b:00:8c:f6:03:13:48:4f:9f:a4:bc:9e:
        66:23:62:f9:9e:ed:4b:00:78:7d:43:4b:4f:78:cb:63:08:ec:
        3b:14:f5:5e:e1:67:49:62:8d:48:46:07:82:42:f2:d1:04:91:
        17:b6:29:92:54:c5:c5:be:b6:d5:62:f6:2a:a8:81:f2:c5:b8:
        39:c0:2b:e1:2c:e8:2e:0c:c3:89:d2:2e:a8:82:18:9c:3c:a0:
        a2:13:f0:f3:cf:4f:c4:47:3a:dd:b0:a3:a3:3d:f4:3b:e4:be:
        ba:cd:48:af:e6:2b:11:56:44:f7:df:b5:a8:6d:de:1b:d4:ba:
        cd:3d:0b:2f:4a:82:98:55:42:3d:99:f3:b8:e5:fd:c2:08:21:
        f3:63:97:5b:3f:18:7b:f3:97:00:3e:fd:c8:a6:b7:68:db:c8:
        5c:6d:ef:32:3c:79:3f:0b:e4:bc:5a:5d:d9:8d:47:7f:0e:bc:
        8f:9f:29:ba:a0:c3:0e:2e:33:e3:13:6b:63:03:9c:77:be:1c:
        5b:f6:f3:2f:af:51:d6:23:a9:3c:a5:3b:2f:6c:78:de:6d:2d:
        1f:6a:de:e5:c8:85:3a:5f:15:74:a7:c4:46:07:4c:e7:13:83:
        2a:f6:64:96
-----BEGIN CERTIFICATE-----
MIIDQTCCAimgAwIBAgIQIg82UgyW9kTZy/jl0MPsEDANBgkqhkiG9w0BAQsFADAO
MQwwCgYDVQQDDANWUE4wHhcNMjUwNDI3MTQ0MjU3WhcNMjcwNzMxMTQ0MjU3WjAO
MQwwCgYDVQQDDANWUE4wggEiMA0GCSqGSIb3DQEBAQUAA4IBDwAwggEKAoIBAQCl
eIfgcRrcexLG2dhDTgURiYFF21M+8sDVec7+kZqit2edNkab2CLIhXNx+VVXDqg1
mpRlVuqZf1pJHLhc4NGq/nYT8t9LXrFfQhIKzboR+5GfCwBSrMQQsZ4UFeFMKw5x
r/6oS+9TULICr1rM+HFcQf9uvBAuZBj+C1y/33T5SNJ0TNgtsVwyUuc+vNuhS6dA
R4xY2f3+bfwQhaPGjUQCXyLxKipE3Iee1yIVoZ4zr9DkcNoevBFlf+m0Ah5lNLs1
dWX6/lm1qRuih9i9MH9rS5aGKbk6vhXykGIRAZSPc2TWHiX8N8+DZHfxfl3IcgLH
SwnH0dphdzf7G3ziUh4jAgMBAAGjgZowgZcwCQYDVR0TBAIwADAdBgNVHQ4EFgQU
/6aMN90ETvu3jpnc0RAF8lXiAIwwSQYDVR0jBEIwQIAUbPlACMZpDRDuZ23SIlyN
OUcVN6qhEqQQMA4xDDAKBgNVBAMMA1ZQToIUEC1WTD0sOy8X4hMns9btoI9V63gw
EwYDVR0lBAwwCgYIKwYBBQUHAwIwCwYDVR0PBAQDAgeAMA0GCSqGSIb3DQEBCwUA
A4IBAQB7rxun8M633MKBIbk8GNdRsCpCIoXljEgrAIz2AxNIT5+kvJ5mI2L5nu1L
AHh9Q0tPeMtjCOw7FPVe4WdJYo1IRgeCQvLRBJEXtimSVMXFvrbVYvYqqIHyxbg5
wCvhLOguDMOJ0i6oghicPKCiE/Dzz0/ERzrdsKOjPfQ75L66zUiv5isRVkT337Wo
bd4b1LrNPQsvSoKYVUI9mfO45f3CCCHzY5dbPxh785cAPv3Iprdo28hcbe8yPHk/
C+S8Wl3ZjUd/DryPnym6oMMOLjPjE2tjA5x3vhxb9vMvr1HWI6k8pTsvbHjebS0f
at7lyIU6XxV0p8RGB0znE4Mq9mSW
-----END CERTIFICATE-----
