Certificate:
    Data:
        Version: 3 (0x2)
        Serial Number:
            26:3c:12:c0:90:e6:82:22:6e:1a:25:e9:b8:8f:b5:bb
        Signature Algorithm: sha256WithRSAEncryption
        Issuer: CN=VPN
        Validity
            Not Before: May 13 12:18:01 2025 GMT
            Not After : Aug 16 12:18:01 2027 GMT
        Subject: CN=prueba7
        Subject Public Key Info:
            Public Key Algorithm: rsaEncryption
                Public-Key: (2048 bit)
                Modulus:
                    00:d5:a7:e6:58:37:63:af:b2:8e:a9:3d:27:b2:ae:
                    18:f1:6c:2f:9a:6d:51:51:cf:07:5a:6e:2f:f3:d5:
                    8d:54:10:f6:5b:c0:4e:58:4f:f4:4c:20:32:d4:f5:
                    fc:54:ea:84:fa:00:86:60:a4:ed:11:ac:e7:df:8f:
                    8d:06:b8:10:6b:38:ed:fc:aa:55:fb:27:fd:84:4c:
                    65:a1:10:00:cf:2a:19:db:46:ad:e0:b4:fe:c4:8f:
                    7d:ea:c8:25:c6:2f:89:d0:1a:33:c7:9b:06:aa:a6:
                    fe:ed:e6:29:c8:cc:de:67:75:a1:e0:b8:f9:f9:e6:
                    20:c4:de:23:74:15:47:c8:1d:94:c4:94:a0:97:d2:
                    4d:00:63:e3:90:aa:4f:0e:33:64:d9:70:7b:b3:7b:
                    f9:38:bc:91:d5:51:27:39:41:93:a2:39:59:e0:0a:
                    f1:bb:cc:0d:bb:03:7e:34:8c:8c:f5:9a:a3:77:f4:
                    d4:6f:bc:f8:04:07:4e:11:f9:f8:97:3c:fa:dc:b1:
                    f2:ed:10:e9:27:36:94:9d:95:4b:ef:81:83:d4:7d:
                    5f:01:ed:d5:26:b0:a6:ea:47:f6:2a:b0:5a:9c:b0:
                    57:7b:a6:97:68:78:1b:45:0c:b9:a9:61:0e:1e:bf:
                    ae:0f:3d:5e:56:ef:db:09:ff:2a:3d:1c:5f:18:cd:
                    94:43
                Exponent: 65537 (0x10001)
        X509v3 extensions:
            X509v3 Basic Constraints: 
                CA:FALSE
            X509v3 Subject Key Identifier: 
                13:FA:8C:6B:2F:C4:2F:48:4A:0A:40:3C:B5:A2:BD:5F:6D:5F:08:B7
            X509v3 Authority Key Identifier: 
                keyid:6C:F9:40:08:C6:69:0D:10:EE:67:6D:D2:22:5C:8D:39:47:15:37:AA
                DirName:/CN=VPN
                serial:10:2D:56:4C:3D:2C:3B:2F:17:E2:13:27:B3:D6:ED:A0:8F:55:EB:78
            X509v3 Extended Key Usage: 
                TLS Web Client Authentication
            X509v3 Key Usage: 
                Digital Signature
    Signature Algorithm: sha256WithRSAEncryption
    Signature Value:
        66:c2:f6:7c:29:1b:39:af:cf:6f:85:1e:07:a5:f6:d2:3c:a9:
        f1:4b:1d:19:21:3a:74:32:76:cb:44:8b:3b:43:03:e9:13:13:
        d4:af:84:a4:f5:2d:89:9c:a4:d6:70:7b:2d:2a:2c:0e:b7:d4:
        71:28:68:3d:a6:0a:b7:a9:e1:b7:8d:82:3c:43:de:54:ae:60:
        fe:bb:82:c7:98:ed:8f:ef:07:b8:a1:20:48:4a:b5:32:ee:e0:
        1a:5a:33:22:0b:7a:f9:d2:ee:c5:84:5b:e1:20:8c:bf:10:85:
        d3:97:01:1d:75:e6:c2:23:27:63:e7:4d:93:67:e6:63:0d:8e:
        29:63:19:a2:98:58:74:2b:83:da:17:53:e8:78:9e:fd:8c:47:
        51:3b:2e:33:b8:6b:f9:45:40:8f:20:58:f8:7c:e9:ef:15:3d:
        66:b0:04:04:0d:b8:a7:d2:c9:83:04:4d:3f:ae:4c:41:7e:4e:
        2b:c6:da:23:df:36:d7:bf:db:06:91:e1:93:5b:0f:ca:9a:e0:
        9b:a5:9d:73:20:8a:a7:39:49:47:1f:66:ad:59:45:46:b1:a5:
        a7:02:21:b1:53:2d:1c:22:03:21:64:82:e9:04:dd:c7:b0:61:
        5c:07:55:49:72:81:a0:4c:d7:09:a3:f7:eb:00:b0:35:1d:ee:
        50:19:1b:2c
-----BEGIN CERTIFICATE-----
MIIDRTCCAi2gAwIBAgIQJjwSwJDmgiJuGiXpuI+1uzANBgkqhkiG9w0BAQsFADAO
MQwwCgYDVQQDDANWUE4wHhcNMjUwNTEzMTIxODAxWhcNMjcwODE2MTIxODAxWjAS
MRAwDgYDVQQDDAdwcnVlYmE3MIIBIjANBgkqhkiG9w0BAQEFAAOCAQ8AMIIBCgKC
AQEA1afmWDdjr7KOqT0nsq4Y8Wwvmm1RUc8HWm4v89WNVBD2W8BOWE/0TCAy1PX8
VOqE+gCGYKTtEazn34+NBrgQazjt/KpV+yf9hExloRAAzyoZ20at4LT+xI996sgl
xi+J0Bozx5sGqqb+7eYpyMzeZ3Wh4Lj5+eYgxN4jdBVHyB2UxJSgl9JNAGPjkKpP
DjNk2XB7s3v5OLyR1VEnOUGTojlZ4Arxu8wNuwN+NIyM9Zqjd/TUb7z4BAdOEfn4
lzz63LHy7RDpJzaUnZVL74GD1H1fAe3VJrCm6kf2KrBanLBXe6aXaHgbRQy5qWEO
Hr+uDz1eVu/bCf8qPRxfGM2UQwIDAQABo4GaMIGXMAkGA1UdEwQCMAAwHQYDVR0O
BBYEFBP6jGsvxC9ISgpAPLWivV9tXwi3MEkGA1UdIwRCMECAFGz5QAjGaQ0Q7mdt
0iJcjTlHFTeqoRKkEDAOMQwwCgYDVQQDDANWUE6CFBAtVkw9LDsvF+ITJ7PW7aCP
Vet4MBMGA1UdJQQMMAoGCCsGAQUFBwMCMAsGA1UdDwQEAwIHgDANBgkqhkiG9w0B
AQsFAAOCAQEAZsL2fCkbOa/Pb4UeB6X20jyp8UsdGSE6dDJ2y0SLO0MD6RMT1K+E
pPUtiZyk1nB7LSosDrfUcShoPaYKt6nht42CPEPeVK5g/ruCx5jtj+8HuKEgSEq1
Mu7gGlozIgt6+dLuxYRb4SCMvxCF05cBHXXmwiMnY+dNk2fmYw2OKWMZophYdCuD
2hdT6Hie/YxHUTsuM7hr+UVAjyBY+Hzp7xU9ZrAEBA24p9LJgwRNP65MQX5OK8ba
I98217/bBpHhk1sPyprgm6WdcyCKpzlJRx9mrVlFRrGlpwIhsVMtHCIDIWSC6QTd
x7BhXAdVSXKBoEzXCaP36wCwNR3uUBkbLA==
-----END CERTIFICATE-----
