Certificate:
    Data:
        Version: 3 (0x2)
        Serial Number:
            29:d2:d6:92:d6:2c:40:ec:e4:25:11:6a:b7:06:52:7f
        Signature Algorithm: sha256WithRSAEncryption
        Issuer: CN=VPN
        Validity
            Not Before: May 28 14:19:01 2025 GMT
            Not After : Aug 31 14:19:01 2027 GMT
        Subject: CN=prueba2
        Subject Public Key Info:
            Public Key Algorithm: rsaEncryption
                Public-Key: (2048 bit)
                Modulus:
                    00:b8:d4:98:24:ad:4d:68:68:64:49:b5:cb:ab:d4:
                    80:fe:03:d5:8a:5a:8c:d1:e4:3b:48:c7:e2:2d:70:
                    b5:1d:00:b9:c3:e4:d9:39:bb:4d:0d:89:75:b1:24:
                    4c:a8:eb:e3:e7:58:84:8f:2f:ae:38:33:b8:26:f7:
                    9b:48:4c:bf:f8:c7:31:7d:a3:1b:4b:6d:d7:a2:59:
                    c8:7f:98:df:ef:98:5a:f5:4a:52:af:57:fc:92:b2:
                    0d:e9:92:73:d8:30:dd:a1:68:1f:a6:46:24:61:3c:
                    c7:8d:af:b3:da:20:af:e1:c7:20:c8:62:49:e8:cc:
                    7f:fd:29:92:ae:98:b1:ba:33:72:ca:f3:86:f5:ef:
                    01:7c:6b:9a:a8:5c:1e:21:c1:70:8e:e8:d4:24:7a:
                    77:c8:a9:7b:1d:df:0e:90:1e:ed:49:bc:c3:cf:a6:
                    d1:98:86:c1:0e:e4:4b:db:39:66:c6:2d:9d:ed:2a:
                    a9:27:93:18:6f:ba:c0:8e:76:39:51:3d:be:00:7c:
                    51:4d:41:41:af:9b:98:c9:ad:3b:8f:44:dd:3e:b4:
                    1e:6e:14:22:4d:e7:64:12:75:b1:a0:0d:9d:28:ba:
                    00:bb:95:0d:8c:2b:22:ed:52:4a:52:ff:f2:58:57:
                    8e:6e:6f:21:ad:82:d7:ab:46:c6:cd:e9:a2:a2:47:
                    65:3f
                Exponent: 65537 (0x10001)
        X509v3 extensions:
            X509v3 Basic Constraints: 
                CA:FALSE
            X509v3 Subject Key Identifier: 
                57:A9:FE:7E:7E:1D:A9:BD:17:F6:3B:8F:73:EB:90:6A:AC:95:CD:75
            X509v3 Authority Key Identifier: 
                keyid:6C:F9:40:08:C6:69:0D:10:EE:67:6D:D2:22:5C:8D:39:47:15:37:AA
                DirName:/CN=VPN
                serial:10:2D:56:4C:3D:2C:3B:2F:17:E2:13:27:B3:D6:ED:A0:8F:55:EB:78
            X509v3 Extended Key Usage: 
                TLS Web Client Authentication
            X509v3 Key Usage: 
                Digital Signature
    Signature Algorithm: sha256WithRSAEncryption
    Signature Value:
        6c:de:92:ea:99:5f:f8:89:25:54:66:b8:a6:a6:5f:64:3b:f7:
        b5:d1:8c:fb:4b:94:2c:e7:07:16:5d:81:78:a9:a9:30:29:c2:
        d5:ef:84:f4:57:cb:43:d9:af:bc:9f:95:04:2e:01:a2:19:5c:
        b3:1b:00:21:e1:3f:64:73:c9:c6:2f:26:e4:4d:5f:23:87:04:
        2c:39:f7:40:de:99:cf:64:8f:fb:51:80:64:50:9b:30:f1:64:
        11:88:a0:fe:d8:cf:1b:95:42:d9:3b:43:20:e9:04:4a:2f:ae:
        58:41:7e:23:fc:83:f0:b1:be:cb:23:6a:7c:77:63:96:f5:68:
        69:b4:92:41:c9:e6:b5:0f:f8:37:c0:c9:27:96:7b:50:ea:2c:
        ed:3c:96:1b:bd:1d:01:f9:6f:92:12:05:ff:5e:31:9f:e3:09:
        b3:65:29:81:ed:b7:1c:5b:5a:14:14:c4:e8:4a:cf:98:b1:0c:
        ad:b5:8b:d9:94:b8:a7:ff:e0:7a:a7:ec:5e:91:39:94:0c:f3:
        86:66:bb:dc:15:d0:fa:93:c6:9c:7b:ff:27:9d:9c:56:0d:9c:
        a6:73:4e:4f:06:ed:6b:da:2b:cc:02:73:83:70:81:0f:10:e0:
        a8:37:7c:a2:52:f2:35:52:12:59:ed:dc:33:c1:09:63:48:9f:
        fd:46:4c:f4
-----BEGIN CERTIFICATE-----
MIIDRTCCAi2gAwIBAgIQKdLWktYsQOzkJRFqtwZSfzANBgkqhkiG9w0BAQsFADAO
MQwwCgYDVQQDDANWUE4wHhcNMjUwNTI4MTQxOTAxWhcNMjcwODMxMTQxOTAxWjAS
MRAwDgYDVQQDDAdwcnVlYmEyMIIBIjANBgkqhkiG9w0BAQEFAAOCAQ8AMIIBCgKC
AQEAuNSYJK1NaGhkSbXLq9SA/gPVilqM0eQ7SMfiLXC1HQC5w+TZObtNDYl1sSRM
qOvj51iEjy+uODO4JvebSEy/+McxfaMbS23XolnIf5jf75ha9UpSr1f8krIN6ZJz
2DDdoWgfpkYkYTzHja+z2iCv4ccgyGJJ6Mx//SmSrpixujNyyvOG9e8BfGuaqFwe
IcFwjujUJHp3yKl7Hd8OkB7tSbzDz6bRmIbBDuRL2zlmxi2d7SqpJ5MYb7rAjnY5
UT2+AHxRTUFBr5uYya07j0TdPrQebhQiTedkEnWxoA2dKLoAu5UNjCsi7VJKUv/y
WFeObm8hrYLXq0bGzemiokdlPwIDAQABo4GaMIGXMAkGA1UdEwQCMAAwHQYDVR0O
BBYEFFep/n5+Ham9F/Y7j3PrkGqslc11MEkGA1UdIwRCMECAFGz5QAjGaQ0Q7mdt
0iJcjTlHFTeqoRKkEDAOMQwwCgYDVQQDDANWUE6CFBAtVkw9LDsvF+ITJ7PW7aCP
Vet4MBMGA1UdJQQMMAoGCCsGAQUFBwMCMAsGA1UdDwQEAwIHgDANBgkqhkiG9w0B
AQsFAAOCAQEAbN6S6plf+IklVGa4pqZfZDv3tdGM+0uULOcHFl2BeKmpMCnC1e+E
9FfLQ9mvvJ+VBC4BohlcsxsAIeE/ZHPJxi8m5E1fI4cELDn3QN6Zz2SP+1GAZFCb
MPFkEYig/tjPG5VC2TtDIOkESi+uWEF+I/yD8LG+yyNqfHdjlvVoabSSQcnmtQ/4
N8DJJ5Z7UOos7TyWG70dAflvkhIF/14xn+MJs2Upge23HFtaFBTE6ErPmLEMrbWL
2ZS4p//geqfsXpE5lAzzhma73BXQ+pPGnHv/J52cVg2cpnNOTwbta9orzAJzg3CB
DxDgqDd8olLyNVISWe3cM8EJY0if/UZM9A==
-----END CERTIFICATE-----
