Certificate:
    Data:
        Version: 3 (0x2)
        Serial Number:
            45:2a:03:68:13:ad:1e:89:dc:f1:51:b2:96:85:65:93
        Signature Algorithm: sha256WithRSAEncryption
        Issuer: CN=VPN
        Validity
            Not Before: May 13 09:39:38 2025 GMT
            Not After : Aug 16 09:39:38 2027 GMT
        Subject: CN=prueba3
        Subject Public Key Info:
            Public Key Algorithm: rsaEncryption
                Public-Key: (2048 bit)
                Modulus:
                    00:9e:b5:40:56:2d:38:d1:73:59:98:2b:49:1a:52:
                    95:c2:22:ec:6b:49:94:a8:cb:15:47:47:25:83:1a:
                    45:0d:27:d5:25:36:98:44:45:e0:45:c7:c4:cf:c8:
                    b7:db:c4:c5:d8:cf:0d:84:d2:4b:6d:1b:28:f4:ca:
                    5c:c3:e3:54:de:2c:54:07:d7:4c:b2:d8:e7:c4:da:
                    f2:d0:e0:c4:00:1a:88:b0:d3:95:7c:e9:ad:46:e7:
                    02:88:59:10:21:84:7c:7e:f3:0d:fa:6b:94:dc:c7:
                    80:a9:00:18:5e:25:1e:38:97:b1:ea:85:df:09:07:
                    7b:7e:c5:e5:af:07:52:f3:01:03:e4:5a:01:84:a8:
                    ae:97:2a:4d:a9:06:81:26:dd:fa:c9:da:c1:63:f8:
                    dd:88:7f:17:e5:89:05:e3:88:8a:56:50:a0:1d:d0:
                    df:b3:3f:92:7a:62:e9:74:97:34:4f:71:b8:e7:98:
                    7d:74:90:1e:12:b1:c7:92:83:01:96:6c:51:6d:2c:
                    ba:9d:c4:69:55:d7:08:25:45:8b:27:0c:cb:ef:47:
                    3a:51:be:f4:57:55:10:c7:95:0a:78:79:fc:83:e9:
                    37:6e:79:28:e7:01:d0:97:ed:61:0d:06:98:04:de:
                    b3:bc:a5:2a:29:02:37:11:ee:11:0e:2f:c6:5d:ff:
                    85:cf
                Exponent: 65537 (0x10001)
        X509v3 extensions:
            X509v3 Basic Constraints: 
                CA:FALSE
            X509v3 Subject Key Identifier: 
                37:7E:FF:DB:01:0E:EA:28:61:D3:C3:50:A3:29:71:07:2A:5F:CF:64
            X509v3 Authority Key Identifier: 
                keyid:6C:F9:40:08:C6:69:0D:10:EE:67:6D:D2:22:5C:8D:39:47:15:37:AA
                DirName:/CN=VPN
                serial:10:2D:56:4C:3D:2C:3B:2F:17:E2:13:27:B3:D6:ED:A0:8F:55:EB:78
            X509v3 Extended Key Usage: 
                TLS Web Client Authentication
            X509v3 Key Usage: 
                Digital Signature
    Signature Algorithm: sha256WithRSAEncryption
    Signature Value:
        41:e5:8a:ef:33:b2:10:86:ef:95:d6:60:18:20:b7:9d:7e:08:
        8f:b5:04:c9:a6:dd:8e:be:86:a3:12:54:45:25:d0:1c:42:bd:
        88:29:0d:f5:19:62:22:82:2e:fa:59:5b:80:48:37:fc:1f:5a:
        41:3a:b1:1e:ae:2b:19:b4:d9:fd:a5:e5:20:3d:ca:81:63:c2:
        c2:ed:4b:07:30:59:c6:51:a1:4a:15:5d:f9:b0:5f:84:27:ab:
        d9:e0:88:48:9e:88:24:7c:a0:8c:2d:61:8e:e6:dd:c4:b2:da:
        a9:d0:e1:e7:21:e8:2a:3f:f4:9c:51:19:a9:a9:ea:46:82:db:
        c6:d1:ae:31:48:8f:c0:52:77:3d:ae:46:52:67:ab:9a:ca:8e:
        b8:78:e0:7d:cd:dd:e9:80:1f:94:c2:2c:0a:22:31:55:ed:62:
        9a:d4:17:0b:c8:54:52:be:d5:40:bd:2d:0d:2b:a0:ff:90:e3:
        66:a0:51:e9:e6:b8:a4:7c:14:28:4d:82:69:14:bd:6b:72:0c:
        87:10:0f:e1:99:34:36:65:1b:3e:9b:4e:be:e8:f7:d9:61:ad:
        d0:d9:d4:89:4d:3b:5b:1e:73:4d:8e:a8:33:50:b8:f3:2a:1a:
        d5:c5:4f:c0:72:d0:0f:4d:6e:db:a3:97:12:9d:13:6e:c7:28:
        98:28:a6:2e
-----BEGIN CERTIFICATE-----
MIIDRTCCAi2gAwIBAgIQRSoDaBOtHonc8VGyloVlkzANBgkqhkiG9w0BAQsFADAO
MQwwCgYDVQQDDANWUE4wHhcNMjUwNTEzMDkzOTM4WhcNMjcwODE2MDkzOTM4WjAS
MRAwDgYDVQQDDAdwcnVlYmEzMIIBIjANBgkqhkiG9w0BAQEFAAOCAQ8AMIIBCgKC
AQEAnrVAVi040XNZmCtJGlKVwiLsa0mUqMsVR0clgxpFDSfVJTaYREXgRcfEz8i3
28TF2M8NhNJLbRso9Mpcw+NU3ixUB9dMstjnxNry0ODEABqIsNOVfOmtRucCiFkQ
IYR8fvMN+muU3MeAqQAYXiUeOJex6oXfCQd7fsXlrwdS8wED5FoBhKiulypNqQaB
Jt36ydrBY/jdiH8X5YkF44iKVlCgHdDfsz+SemLpdJc0T3G455h9dJAeErHHkoMB
lmxRbSy6ncRpVdcIJUWLJwzL70c6Ub70V1UQx5UKeHn8g+k3bnko5wHQl+1hDQaY
BN6zvKUqKQI3Ee4RDi/GXf+FzwIDAQABo4GaMIGXMAkGA1UdEwQCMAAwHQYDVR0O
BBYEFDd+/9sBDuooYdPDUKMpcQcqX89kMEkGA1UdIwRCMECAFGz5QAjGaQ0Q7mdt
0iJcjTlHFTeqoRKkEDAOMQwwCgYDVQQDDANWUE6CFBAtVkw9LDsvF+ITJ7PW7aCP
Vet4MBMGA1UdJQQMMAoGCCsGAQUFBwMCMAsGA1UdDwQEAwIHgDANBgkqhkiG9w0B
AQsFAAOCAQEAQeWK7zOyEIbvldZgGCC3nX4Ij7UEyabdjr6GoxJURSXQHEK9iCkN
9RliIoIu+llbgEg3/B9aQTqxHq4rGbTZ/aXlID3KgWPCwu1LBzBZxlGhShVd+bBf
hCer2eCISJ6IJHygjC1hjubdxLLaqdDh5yHoKj/0nFEZqanqRoLbxtGuMUiPwFJ3
Pa5GUmermsqOuHjgfc3d6YAflMIsCiIxVe1imtQXC8hUUr7VQL0tDSug/5DjZqBR
6ea4pHwUKE2CaRS9a3IMhxAP4Zk0NmUbPptOvuj32WGt0NnUiU07Wx5zTY6oM1C4
8yoa1cVPwHLQD01u26OXEp0TbscomCimLg==
-----END CERTIFICATE-----
