Certificate:
    Data:
        Version: 3 (0x2)
        Serial Number:
            6c:a8:81:f5:65:7d:6e:41:65:00:63:be:f6:47:a0:ca
        Signature Algorithm: sha256WithRSAEncryption
        Issuer: CN=VPN
        Validity
            Not Before: May 13 09:40:32 2025 GMT
            Not After : Aug 16 09:40:32 2027 GMT
        Subject: CN=pruea3
        Subject Public Key Info:
            Public Key Algorithm: rsaEncryption
                Public-Key: (2048 bit)
                Modulus:
                    00:de:f5:f6:fc:99:dc:44:32:62:14:84:cc:b4:ae:
                    b1:e2:61:18:e9:95:1e:f2:f1:b7:2f:f0:ea:b1:55:
                    3b:11:09:2d:65:a1:c8:f5:2b:6c:6f:5f:37:cd:24:
                    60:ef:7f:0a:34:8f:89:3f:7b:98:77:b5:0f:7a:e9:
                    7c:6b:1f:a2:79:1c:6f:a7:37:57:ad:a0:0b:ef:b1:
                    48:c2:f6:ac:84:3a:19:6d:b5:d0:23:11:62:4d:fd:
                    46:50:ea:32:9c:e1:ac:65:61:d5:f3:58:c7:7f:91:
                    40:42:dd:10:79:8e:b2:e0:d1:d8:cd:a0:f7:a1:75:
                    5e:24:f5:7d:fd:83:29:15:21:83:ce:ff:79:a4:75:
                    29:71:51:17:83:53:64:18:da:fe:15:44:25:f6:c9:
                    4f:b8:24:c2:7e:03:23:f6:45:0c:ce:2f:e0:5c:48:
                    44:db:8f:3e:2e:35:3c:cb:e9:7d:81:57:87:58:a5:
                    33:e7:65:f7:67:fb:97:2f:7e:4d:bd:d5:49:b9:e3:
                    aa:6d:13:a7:5d:14:5b:6a:49:49:68:a6:7e:5c:b4:
                    b7:57:97:f8:7a:4d:52:be:3d:8f:4b:81:c3:aa:5d:
                    9e:82:e0:02:fc:53:67:29:d0:dd:e7:a2:de:bb:16:
                    1c:46:1e:5d:59:2f:bf:01:04:16:2b:b9:0a:04:a0:
                    64:79
                Exponent: 65537 (0x10001)
        X509v3 extensions:
            X509v3 Basic Constraints: 
                CA:FALSE
            X509v3 Subject Key Identifier: 
                B3:11:5F:FA:64:ED:65:E4:AE:F0:57:F4:40:E7:B9:2F:32:3D:BE:6C
            X509v3 Authority Key Identifier: 
                keyid:6C:F9:40:08:C6:69:0D:10:EE:67:6D:D2:22:5C:8D:39:47:15:37:AA
                DirName:/CN=VPN
                serial:10:2D:56:4C:3D:2C:3B:2F:17:E2:13:27:B3:D6:ED:A0:8F:55:EB:78
            X509v3 Extended Key Usage: 
                TLS Web Client Authentication
            X509v3 Key Usage: 
                Digital Signature
    Signature Algorithm: sha256WithRSAEncryption
    Signature Value:
        46:bf:5b:8a:2a:d6:4e:0e:8a:fe:6e:32:fb:72:60:c2:d7:07:
        8b:6f:7f:f1:db:05:e3:c1:a4:f7:05:f1:eb:da:0e:54:3e:57:
        09:57:4a:bc:a4:18:86:a5:c2:e8:da:12:7e:4c:fc:16:ee:2c:
        02:e0:8d:60:91:98:9d:d4:a0:ba:40:68:4a:f0:1e:35:0f:de:
        00:d1:7d:93:b6:81:62:1b:1a:a5:f4:0e:8e:51:42:b5:cf:66:
        32:a1:88:ae:07:3b:45:c8:35:fa:b7:a4:b5:5d:4e:43:66:d8:
        b6:50:53:8e:67:46:4e:e7:88:c7:d6:52:40:e1:53:a3:1e:ec:
        08:e3:db:77:6e:9a:07:bc:1e:bf:95:39:33:d1:29:2d:ad:e6:
        b7:e2:55:63:18:be:24:8e:2a:57:0c:bf:f4:e6:ac:cb:26:f8:
        9d:a5:5a:82:55:f9:5e:97:f4:24:7b:36:78:c9:4a:ca:a3:c1:
        bb:b8:fb:1c:9b:40:3c:bb:e1:fe:1a:60:07:fb:40:85:b2:15:
        e6:67:4f:0d:87:29:9b:1c:0e:86:57:8d:cb:b6:05:63:67:55:
        e7:4c:4c:2b:24:d4:6f:ae:e3:aa:47:71:75:97:06:55:68:4f:
        14:e7:d5:0a:37:64:44:f8:a2:c3:fa:1c:0c:17:50:33:06:f0:
        16:a5:54:15
-----BEGIN CERTIFICATE-----
MIIDRDCCAiygAwIBAgIQbKiB9WV9bkFlAGO+9kegyjANBgkqhkiG9w0BAQsFADAO
MQwwCgYDVQQDDANWUE4wHhcNMjUwNTEzMDk0MDMyWhcNMjcwODE2MDk0MDMyWjAR
MQ8wDQYDVQQDDAZwcnVlYTMwggEiMA0GCSqGSIb3DQEBAQUAA4IBDwAwggEKAoIB
AQDe9fb8mdxEMmIUhMy0rrHiYRjplR7y8bcv8OqxVTsRCS1locj1K2xvXzfNJGDv
fwo0j4k/e5h3tQ966XxrH6J5HG+nN1etoAvvsUjC9qyEOhlttdAjEWJN/UZQ6jKc
4axlYdXzWMd/kUBC3RB5jrLg0djNoPehdV4k9X39gykVIYPO/3mkdSlxUReDU2QY
2v4VRCX2yU+4JMJ+AyP2RQzOL+BcSETbjz4uNTzL6X2BV4dYpTPnZfdn+5cvfk29
1Um546ptE6ddFFtqSUlopn5ctLdXl/h6TVK+PY9LgcOqXZ6C4AL8U2cp0N3not67
FhxGHl1ZL78BBBYruQoEoGR5AgMBAAGjgZowgZcwCQYDVR0TBAIwADAdBgNVHQ4E
FgQUsxFf+mTtZeSu8Ff0QOe5LzI9vmwwSQYDVR0jBEIwQIAUbPlACMZpDRDuZ23S
IlyNOUcVN6qhEqQQMA4xDDAKBgNVBAMMA1ZQToIUEC1WTD0sOy8X4hMns9btoI9V
63gwEwYDVR0lBAwwCgYIKwYBBQUHAwIwCwYDVR0PBAQDAgeAMA0GCSqGSIb3DQEB
CwUAA4IBAQBGv1uKKtZODor+bjL7cmDC1weLb3/x2wXjwaT3BfHr2g5UPlcJV0q8
pBiGpcLo2hJ+TPwW7iwC4I1gkZid1KC6QGhK8B41D94A0X2TtoFiGxql9A6OUUK1
z2YyoYiuBztFyDX6t6S1XU5DZti2UFOOZ0ZO54jH1lJA4VOjHuwI49t3bpoHvB6/
lTkz0Sktrea34lVjGL4kjipXDL/05qzLJvidpVqCVflel/QkezZ4yUrKo8G7uPsc
m0A8u+H+GmAH+0CFshXmZ08NhymbHA6GV43LtgVjZ1XnTEwrJNRvruOqR3F1lwZV
aE8U59UKN2RE+KLD+hwMF1AzBvAWpVQV
-----END CERTIFICATE-----
