Certificate:
    Data:
        Version: 3 (0x2)
        Serial Number:
            6d:ec:11:d1:f8:2a:6b:6e:d1:ca:fd:e2:a9:42:fc:d8
        Signature Algorithm: sha256WithRSAEncryption
        Issuer: CN=VPN
        Validity
            Not Before: May 13 14:33:28 2025 GMT
            Not After : Aug 16 14:33:28 2027 GMT
        Subject: CN=dia14
        Subject Public Key Info:
            Public Key Algorithm: rsaEncryption
                Public-Key: (2048 bit)
                Modulus:
                    00:b6:36:8f:4e:65:fa:93:84:11:95:6f:5b:27:5e:
                    5e:25:6a:18:d6:3b:76:ae:c3:67:6f:6d:c5:23:24:
                    93:e1:7d:e0:80:8a:8d:f0:6e:14:cf:70:e6:ab:8a:
                    2f:33:80:cd:14:1e:e5:4b:56:04:14:b4:60:ca:55:
                    f1:c9:fc:8f:e8:85:61:10:61:c1:9e:2f:80:84:eb:
                    86:54:94:eb:91:16:3c:8d:9c:20:d0:bc:15:cd:19:
                    33:50:27:9f:bc:a7:9c:3c:a0:30:de:30:8c:d5:c2:
                    77:67:19:50:c0:82:d5:b9:c5:8f:be:70:d3:09:76:
                    70:ba:5a:1d:00:4b:89:27:8f:8e:13:89:a4:ba:33:
                    5a:46:8b:32:23:0e:7a:d1:e3:09:15:85:0b:66:2c:
                    6e:5e:88:f1:7c:66:24:1b:6e:c4:3a:ae:0f:10:b3:
                    e3:57:0b:44:25:7b:0f:d9:20:2a:5f:92:69:12:20:
                    11:7f:67:74:67:9c:c1:0b:b8:5b:97:8b:24:b5:fe:
                    2f:76:e9:af:c5:f8:60:6b:b1:2f:6d:2d:a3:bc:41:
                    2e:cc:fe:9b:05:0e:19:2e:fe:62:dc:87:12:db:4b:
                    51:0a:0c:a7:81:89:59:66:fb:d3:7e:15:17:70:1b:
                    44:4f:db:cc:cd:43:9e:52:82:fa:19:13:34:2a:cd:
                    e4:bf
                Exponent: 65537 (0x10001)
        X509v3 extensions:
            X509v3 Basic Constraints: 
                CA:FALSE
            X509v3 Subject Key Identifier: 
                6B:50:E9:69:FA:5B:1D:44:59:19:C8:8A:93:6F:9C:F0:96:FD:EC:E0
            X509v3 Authority Key Identifier: 
                keyid:6C:F9:40:08:C6:69:0D:10:EE:67:6D:D2:22:5C:8D:39:47:15:37:AA
                DirName:/CN=VPN
                serial:10:2D:56:4C:3D:2C:3B:2F:17:E2:13:27:B3:D6:ED:A0:8F:55:EB:78
            X509v3 Extended Key Usage: 
                TLS Web Client Authentication
            X509v3 Key Usage: 
                Digital Signature
    Signature Algorithm: sha256WithRSAEncryption
    Signature Value:
        8a:a4:8f:07:41:32:b7:6c:f2:45:0a:05:09:df:cc:be:05:66:
        4a:3a:3f:58:4f:43:54:69:4b:eb:cb:c5:1a:ca:61:f2:11:26:
        7f:51:ff:14:e3:60:96:80:07:00:ca:ca:12:7b:78:f1:1c:a1:
        7e:f3:ad:de:f8:72:e6:f8:28:5d:89:42:41:22:9b:25:89:d2:
        f6:fe:37:0b:ae:8c:ba:ec:1e:af:14:1b:e0:90:8c:23:d9:f6:
        d4:5d:37:5c:ba:90:9e:08:85:b4:9a:2c:42:8d:ee:e4:48:3f:
        29:91:91:a9:ea:66:c5:0e:6c:44:4c:11:29:5a:a6:31:69:4f:
        d5:c8:51:56:b9:86:a9:14:1a:58:16:64:a5:25:9c:c2:3a:d8:
        fd:f8:c6:e3:5f:ee:91:0a:68:a3:46:ed:ae:f8:57:8e:26:1a:
        af:4d:6e:05:07:42:01:5b:9a:5e:91:8b:ef:87:ac:d0:aa:52:
        a9:88:fe:ef:da:37:ec:de:25:07:5c:5d:77:97:8b:ec:a7:93:
        0f:18:6d:7f:e9:ad:d6:3a:0e:57:70:ba:e4:1d:23:e3:1f:85:
        87:60:f7:cf:8b:9f:9c:2a:b1:81:bc:75:da:2b:fe:5b:88:54:
        a7:3d:90:d7:bd:d0:32:49:02:7a:2b:10:a1:c0:87:7b:5a:7f:
        58:bd:18:93
-----BEGIN CERTIFICATE-----
MIIDQzCCAiugAwIBAgIQbewR0fgqa27Ryv3iqUL82DANBgkqhkiG9w0BAQsFADAO
MQwwCgYDVQQDDANWUE4wHhcNMjUwNTEzMTQzMzI4WhcNMjcwODE2MTQzMzI4WjAQ
MQ4wDAYDVQQDDAVkaWExNDCCASIwDQYJKoZIhvcNAQEBBQADggEPADCCAQoCggEB
ALY2j05l+pOEEZVvWydeXiVqGNY7dq7DZ29txSMkk+F94ICKjfBuFM9w5quKLzOA
zRQe5UtWBBS0YMpV8cn8j+iFYRBhwZ4vgITrhlSU65EWPI2cINC8Fc0ZM1Ann7yn
nDygMN4wjNXCd2cZUMCC1bnFj75w0wl2cLpaHQBLiSePjhOJpLozWkaLMiMOetHj
CRWFC2Ysbl6I8XxmJBtuxDquDxCz41cLRCV7D9kgKl+SaRIgEX9ndGecwQu4W5eL
JLX+L3bpr8X4YGuxL20to7xBLsz+mwUOGS7+YtyHEttLUQoMp4GJWWb7034VF3Ab
RE/bzM1DnlKC+hkTNCrN5L8CAwEAAaOBmjCBlzAJBgNVHRMEAjAAMB0GA1UdDgQW
BBRrUOlp+lsdRFkZyIqTb5zwlv3s4DBJBgNVHSMEQjBAgBRs+UAIxmkNEO5nbdIi
XI05RxU3qqESpBAwDjEMMAoGA1UEAwwDVlBOghQQLVZMPSw7LxfiEyez1u2gj1Xr
eDATBgNVHSUEDDAKBggrBgEFBQcDAjALBgNVHQ8EBAMCB4AwDQYJKoZIhvcNAQEL
BQADggEBAIqkjwdBMrds8kUKBQnfzL4FZko6P1hPQ1RpS+vLxRrKYfIRJn9R/xTj
YJaABwDKyhJ7ePEcoX7zrd74cub4KF2JQkEimyWJ0vb+NwuujLrsHq8UG+CQjCPZ
9tRdN1y6kJ4IhbSaLEKN7uRIPymRkanqZsUObERMESlapjFpT9XIUVa5hqkUGlgW
ZKUlnMI62P34xuNf7pEKaKNG7a74V44mGq9NbgUHQgFbml6Ri++HrNCqUqmI/u/a
N+zeJQdcXXeXi+ynkw8YbX/prdY6DldwuuQdI+MfhYdg98+Ln5wqsYG8ddor/luI
VKc9kNe90DJJAnorEKHAh3taf1i9GJM=
-----END CERTIFICATE-----
