Certificate:
    Data:
        Version: 3 (0x2)
        Serial Number:
            d3:f1:85:b4:95:4d:66:86:17:1f:0a:fd:50:a9:bc:ab
        Signature Algorithm: sha256WithRSAEncryption
        Issuer: CN=VPN
        Validity
            Not Before: Apr 30 11:27:35 2025 GMT
            Not After : Aug  3 11:27:35 2027 GMT
        Subject: CN=nico
        Subject Public Key Info:
            Public Key Algorithm: rsaEncryption
                Public-Key: (2048 bit)
                Modulus:
                    00:e7:5c:f3:13:70:da:ab:bd:a6:a4:a3:ac:7b:ce:
                    8c:43:bb:5d:cf:45:06:74:25:2c:82:d0:cf:35:ff:
                    68:57:58:5c:98:b1:d9:ae:2b:45:96:be:4a:0a:a3:
                    b2:82:99:7d:26:3a:c7:2a:3f:52:8f:41:97:81:4e:
                    89:bd:8a:02:c6:d1:6b:15:a8:fe:36:a7:20:6f:8f:
                    6d:c8:ba:42:51:c6:c5:ad:6f:ba:ef:6a:7d:58:26:
                    94:c6:dc:ad:8d:e0:9d:ad:df:06:d6:3e:44:16:e8:
                    c8:7a:57:eb:4e:0a:ca:95:57:85:14:dc:2a:99:62:
                    68:9c:76:c8:67:a9:b5:2c:1c:74:62:e2:f1:71:35:
                    58:c4:de:74:5b:ac:a6:ff:f4:66:bb:ac:d4:9f:5c:
                    0f:5f:b0:6a:ab:d2:63:b2:42:b3:fc:e4:ae:4f:3a:
                    b2:65:b6:d6:b2:c3:25:20:a9:b1:07:da:ea:c1:08:
                    a5:04:5e:ac:07:6b:06:07:24:27:2d:c8:aa:b2:51:
                    51:79:0d:b9:e9:af:0f:6b:85:d0:9b:c0:3d:6e:fb:
                    16:b1:a8:ae:4e:79:f6:20:f3:f0:75:54:90:0e:1d:
                    f2:31:5b:7c:53:6c:85:d2:01:29:1e:12:a5:fe:0d:
                    49:6c:a2:66:30:47:2d:e8:73:dc:a1:70:c9:10:25:
                    f6:cf
                Exponent: 65537 (0x10001)
        X509v3 extensions:
            X509v3 Basic Constraints: 
                CA:FALSE
            X509v3 Subject Key Identifier: 
                BE:B9:EB:7A:8D:82:56:AF:BF:3A:38:88:D3:97:22:83:B8:6C:0C:45
            X509v3 Authority Key Identifier: 
                keyid:6C:F9:40:08:C6:69:0D:10:EE:67:6D:D2:22:5C:8D:39:47:15:37:AA
                DirName:/CN=VPN
                serial:10:2D:56:4C:3D:2C:3B:2F:17:E2:13:27:B3:D6:ED:A0:8F:55:EB:78
            X509v3 Extended Key Usage: 
                TLS Web Client Authentication
            X509v3 Key Usage: 
                Digital Signature
    Signature Algorithm: sha256WithRSAEncryption
    Signature Value:
        06:7a:1a:13:7f:11:f4:62:06:93:2b:a1:e6:c9:92:aa:63:8b:
        0b:b2:5e:05:c6:e2:8a:c1:1a:09:dd:6a:56:ba:bd:c6:5a:e8:
        aa:8f:89:b1:19:4b:f9:80:ec:e0:88:51:4e:c5:21:3f:1c:8b:
        8b:6b:5b:43:85:80:b8:ba:cf:c2:5d:44:85:17:18:d2:4e:20:
        42:4e:85:59:4f:bb:e9:27:91:07:1d:50:a5:7d:ff:55:60:6a:
        3c:b5:d7:54:36:30:57:0a:b9:1e:52:02:85:62:6a:4e:e2:78:
        17:f4:46:34:f2:ed:f0:6c:c9:97:49:f3:c5:09:63:8a:77:af:
        9c:d3:85:ff:df:d1:61:fa:28:b8:34:1e:dc:ea:9b:2f:b4:c5:
        73:2b:04:14:7a:1e:2f:bc:73:a7:16:bf:4d:bc:82:7f:8b:f8:
        64:6b:d7:e5:7c:37:6f:dd:5e:9a:31:53:f8:20:9a:f0:c7:d8:
        5e:20:7b:85:74:d4:67:b5:bd:50:42:38:9b:b5:d3:72:3c:d2:
        b9:dc:3f:d3:de:fb:1d:62:42:89:44:e8:87:55:ca:18:44:1c:
        56:da:9f:ec:52:28:74:c9:b4:c4:99:a5:7c:a4:6f:76:42:f3:
        70:63:00:26:bb:2e:fc:17:63:f3:ea:3a:11:30:6a:f7:29:a6:
        f3:2b:4f:90
-----BEGIN CERTIFICATE-----
MIIDQzCCAiugAwIBAgIRANPxhbSVTWaGFx8K/VCpvKswDQYJKoZIhvcNAQELBQAw
DjEMMAoGA1UEAwwDVlBOMB4XDTI1MDQzMDExMjczNVoXDTI3MDgwMzExMjczNVow
DzENMAsGA1UEAwwEbmljbzCCASIwDQYJKoZIhvcNAQEBBQADggEPADCCAQoCggEB
AOdc8xNw2qu9pqSjrHvOjEO7Xc9FBnQlLILQzzX/aFdYXJix2a4rRZa+SgqjsoKZ
fSY6xyo/Uo9Bl4FOib2KAsbRaxWo/janIG+Pbci6QlHGxa1vuu9qfVgmlMbcrY3g
na3fBtY+RBboyHpX604KypVXhRTcKpliaJx2yGeptSwcdGLi8XE1WMTedFuspv/0
Zrus1J9cD1+waqvSY7JCs/zkrk86smW21rLDJSCpsQfa6sEIpQRerAdrBgckJy3I
qrJRUXkNuemvD2uF0JvAPW77FrGork559iDz8HVUkA4d8jFbfFNshdIBKR4Spf4N
SWyiZjBHLehz3KFwyRAl9s8CAwEAAaOBmjCBlzAJBgNVHRMEAjAAMB0GA1UdDgQW
BBS+uet6jYJWr786OIjTlyKDuGwMRTBJBgNVHSMEQjBAgBRs+UAIxmkNEO5nbdIi
XI05RxU3qqESpBAwDjEMMAoGA1UEAwwDVlBOghQQLVZMPSw7LxfiEyez1u2gj1Xr
eDATBgNVHSUEDDAKBggrBgEFBQcDAjALBgNVHQ8EBAMCB4AwDQYJKoZIhvcNAQEL
BQADggEBAAZ6GhN/EfRiBpMroebJkqpjiwuyXgXG4orBGgndala6vcZa6KqPibEZ
S/mA7OCIUU7FIT8ci4trW0OFgLi6z8JdRIUXGNJOIEJOhVlPu+knkQcdUKV9/1Vg
ajy111Q2MFcKuR5SAoViak7ieBf0RjTy7fBsyZdJ88UJY4p3r5zThf/f0WH6KLg0
Htzqmy+0xXMrBBR6Hi+8c6cWv028gn+L+GRr1+V8N2/dXpoxU/ggmvDH2F4ge4V0
1Ge1vVBCOJu103I80rncP9Pe+x1iQolE6IdVyhhEHFban+xSKHTJtMSZpXykb3ZC
83BjACa7LvwXY/PqOhEwavcppvMrT5A=
-----END CERTIFICATE-----
