Certificate:
    Data:
        Version: 3 (0x2)
        Serial Number:
            d8:40:ff:43:36:c0:aa:24:b4:7f:83:3e:47:2e:39:b3
        Signature Algorithm: sha256WithRSAEncryption
        Issuer: CN=VPN
        Validity
            Not Before: Jun  4 12:46:31 2025 GMT
            Not After : Sep  7 12:46:31 2027 GMT
        Subject: CN=prueba1
        Subject Public Key Info:
            Public Key Algorithm: rsaEncryption
                Public-Key: (2048 bit)
                Modulus:
                    00:a5:21:ff:48:0e:19:24:ef:ff:58:a0:a6:f5:aa:
                    94:09:09:f6:39:50:9a:6a:7d:13:ef:40:5f:a7:0e:
                    70:78:d0:13:bb:1e:33:86:fe:8f:33:a9:48:95:60:
                    3c:b9:db:85:12:00:6b:11:95:a0:8a:14:e5:10:bb:
                    09:72:1f:29:3e:5d:cb:43:25:d4:d8:23:e3:c2:ca:
                    5e:e5:32:5c:c3:5b:41:99:cf:7e:33:8e:ba:ef:21:
                    87:d0:d5:c1:e7:6c:f6:50:85:b9:f6:37:b3:b7:89:
                    d4:7d:dd:89:04:cc:21:af:30:dd:f0:4a:98:10:c3:
                    d2:6b:17:01:72:43:79:78:dd:95:cd:95:08:5f:a9:
                    15:68:e1:91:b0:49:0f:76:f6:2a:61:48:47:57:43:
                    5d:c6:99:3e:39:21:80:17:1b:51:a2:e5:f8:f9:71:
                    7b:9a:91:df:cc:ed:2f:7b:4f:a1:4a:69:47:84:37:
                    fc:af:10:fc:d2:71:3f:3b:a8:82:15:3b:13:b6:eb:
                    96:70:d3:ea:24:18:f3:2a:14:28:d8:37:aa:2c:2e:
                    85:8b:08:bc:6e:4b:b3:14:51:a2:ca:ab:ca:cb:48:
                    75:bc:01:aa:20:a8:c2:5f:7f:35:23:dc:ab:33:fc:
                    74:45:e6:c2:66:f8:8f:e7:71:0b:06:7d:33:a0:31:
                    5d:9f
                Exponent: 65537 (0x10001)
        X509v3 extensions:
            X509v3 Basic Constraints: 
                CA:FALSE
            X509v3 Subject Key Identifier: 
                F2:0F:C3:54:56:06:D9:F9:A6:23:0D:8F:BB:56:06:3E:96:D0:DE:58
            X509v3 Authority Key Identifier: 
                keyid:6C:F9:40:08:C6:69:0D:10:EE:67:6D:D2:22:5C:8D:39:47:15:37:AA
                DirName:/CN=VPN
                serial:10:2D:56:4C:3D:2C:3B:2F:17:E2:13:27:B3:D6:ED:A0:8F:55:EB:78
            X509v3 Extended Key Usage: 
                TLS Web Client Authentication
            X509v3 Key Usage: 
                Digital Signature
    Signature Algorithm: sha256WithRSAEncryption
    Signature Value:
        17:93:a6:9b:de:f0:d0:16:cf:a8:bb:cd:85:1a:47:b0:a2:77:
        46:67:dd:61:36:1c:e9:37:0d:3e:aa:55:93:2e:85:ad:ff:a8:
        57:23:1f:09:cf:e9:90:4c:4a:ce:da:60:ac:5e:9c:ad:8b:af:
        b8:1f:c0:1f:ec:83:c7:5c:d2:a8:5e:c6:ff:eb:f0:37:78:c5:
        e4:e0:6a:9f:33:03:d2:bf:dc:6a:26:4e:e8:aa:98:02:8c:56:
        94:20:5c:dd:b4:9e:3b:c4:90:2b:19:7d:da:b0:02:f6:cb:41:
        5b:5d:56:e0:b7:a1:a6:c5:a9:ce:d2:ed:53:14:0e:be:15:07:
        a2:86:08:b2:d0:58:11:8b:58:6a:1e:d8:51:c5:6d:60:82:35:
        32:8c:c4:2b:af:c8:71:18:45:c4:80:1a:ed:8a:02:25:b2:22:
        57:44:45:d4:ae:69:72:33:8d:35:7c:67:b0:76:ca:75:47:89:
        c9:6c:48:c4:42:dd:30:f0:cc:6d:d0:78:1d:ca:61:a7:68:e4:
        f2:b0:30:50:c5:a7:ad:de:99:0c:e1:d7:6c:f5:74:75:a7:86:
        20:ef:f7:eb:57:7c:e7:e9:7b:38:a2:e3:13:da:ca:34:4f:72:
        f9:02:62:3d:77:da:20:84:7b:9d:e8:dc:e3:88:09:4e:a0:9a:
        ad:02:55:64
-----BEGIN CERTIFICATE-----
MIIDRjCCAi6gAwIBAgIRANhA/0M2wKoktH+DPkcuObMwDQYJKoZIhvcNAQELBQAw
DjEMMAoGA1UEAwwDVlBOMB4XDTI1MDYwNDEyNDYzMVoXDTI3MDkwNzEyNDYzMVow
EjEQMA4GA1UEAwwHcHJ1ZWJhMTCCASIwDQYJKoZIhvcNAQEBBQADggEPADCCAQoC
ggEBAKUh/0gOGSTv/1igpvWqlAkJ9jlQmmp9E+9AX6cOcHjQE7seM4b+jzOpSJVg
PLnbhRIAaxGVoIoU5RC7CXIfKT5dy0Ml1Ngj48LKXuUyXMNbQZnPfjOOuu8hh9DV
weds9lCFufY3s7eJ1H3diQTMIa8w3fBKmBDD0msXAXJDeXjdlc2VCF+pFWjhkbBJ
D3b2KmFIR1dDXcaZPjkhgBcbUaLl+Plxe5qR38ztL3tPoUppR4Q3/K8Q/NJxPzuo
ghU7E7brlnDT6iQY8yoUKNg3qiwuhYsIvG5LsxRRosqrystIdbwBqiCowl9/NSPc
qzP8dEXmwmb4j+dxCwZ9M6AxXZ8CAwEAAaOBmjCBlzAJBgNVHRMEAjAAMB0GA1Ud
DgQWBBTyD8NUVgbZ+aYjDY+7VgY+ltDeWDBJBgNVHSMEQjBAgBRs+UAIxmkNEO5n
bdIiXI05RxU3qqESpBAwDjEMMAoGA1UEAwwDVlBOghQQLVZMPSw7LxfiEyez1u2g
j1XreDATBgNVHSUEDDAKBggrBgEFBQcDAjALBgNVHQ8EBAMCB4AwDQYJKoZIhvcN
AQELBQADggEBABeTppve8NAWz6i7zYUaR7Cid0Zn3WE2HOk3DT6qVZMuha3/qFcj
HwnP6ZBMSs7aYKxenK2Lr7gfwB/sg8dc0qhexv/r8Dd4xeTgap8zA9K/3GomTuiq
mAKMVpQgXN20njvEkCsZfdqwAvbLQVtdVuC3oabFqc7S7VMUDr4VB6KGCLLQWBGL
WGoe2FHFbWCCNTKMxCuvyHEYRcSAGu2KAiWyIldERdSuaXIzjTV8Z7B2ynVHicls
SMRC3TDwzG3QeB3KYado5PKwMFDFp63emQzh12z1dHWnhiDv9+tXfOfpezii4xPa
yjRPcvkCYj132iCEe53o3OOICU6gmq0CVWQ=
-----END CERTIFICATE-----
