Certificate:
    Data:
        Version: 3 (0x2)
        Serial Number:
            f4:31:ca:d0:2c:25:86:f0:98:65:ce:39:b2:c2:9d:43
        Signature Algorithm: sha256WithRSAEncryption
        Issuer: CN=VPN
        Validity
            Not Before: Apr 30 12:39:37 2025 GMT
            Not After : Aug  3 12:39:37 2027 GMT
        Subject: CN=luis
        Subject Public Key Info:
            Public Key Algorithm: rsaEncryption
                Public-Key: (2048 bit)
                Modulus:
                    00:bb:03:9b:2a:6c:91:c1:53:d6:34:cd:67:ab:71:
                    39:3b:a7:fd:2d:52:6d:97:d6:90:93:57:7e:f2:a8:
                    8a:42:fc:e5:fc:46:7a:fb:dc:81:2c:83:22:f4:76:
                    f7:b8:f8:e0:7d:9f:3c:ab:95:0f:e8:7d:ca:58:bf:
                    be:ac:9d:98:64:ee:68:79:93:51:a2:eb:85:7e:ef:
                    d7:a4:01:9d:c0:56:c1:09:7e:a1:08:b6:b4:df:b2:
                    70:9e:43:37:15:54:91:6e:9f:a7:16:7a:4d:3a:52:
                    a0:b0:a5:db:c4:b3:11:d1:d7:7b:82:6c:3e:14:53:
                    7d:7b:57:21:f8:a6:9e:44:7d:e0:ab:69:ae:78:f6:
                    f6:20:da:10:16:32:12:e4:58:d0:fb:39:5b:8e:e4:
                    92:e7:78:7b:04:f4:fc:f1:1d:30:89:5d:0f:04:2a:
                    93:e6:47:39:ad:98:20:e5:c3:48:74:42:ac:50:ed:
                    4e:d2:e2:1f:c3:9c:e0:09:ee:ac:01:d4:23:37:43:
                    57:92:14:91:52:64:68:09:f1:1c:00:79:a7:a7:31:
                    5c:64:6f:30:b2:1a:49:8e:45:79:f6:a9:6c:3d:66:
                    13:89:f4:d2:03:05:55:fd:e7:f7:21:5a:a4:31:e6:
                    01:a6:35:7d:79:7c:b9:53:c7:a8:68:93:c8:91:27:
                    3a:85
                Exponent: 65537 (0x10001)
        X509v3 extensions:
            X509v3 Basic Constraints: 
                CA:FALSE
            X509v3 Subject Key Identifier: 
                83:6C:CA:38:83:BB:59:A0:B3:9B:53:46:53:C3:E8:24:39:81:F8:1A
            X509v3 Authority Key Identifier: 
                keyid:6C:F9:40:08:C6:69:0D:10:EE:67:6D:D2:22:5C:8D:39:47:15:37:AA
                DirName:/CN=VPN
                serial:10:2D:56:4C:3D:2C:3B:2F:17:E2:13:27:B3:D6:ED:A0:8F:55:EB:78
            X509v3 Extended Key Usage: 
                TLS Web Client Authentication
            X509v3 Key Usage: 
                Digital Signature
    Signature Algorithm: sha256WithRSAEncryption
    Signature Value:
        7a:ac:3c:c1:0d:a8:ae:70:38:4f:32:bc:b5:ac:ac:e4:f6:d5:
        bf:6b:3e:70:21:bb:1e:cd:97:1a:cd:1c:af:80:d0:92:46:90:
        f0:94:46:34:7c:21:be:f5:64:f5:f0:eb:3d:5f:70:29:2a:af:
        d2:6d:b1:78:a5:d5:df:53:ea:4c:0d:c1:95:b4:50:38:f9:b2:
        bc:92:42:72:d7:0d:02:50:3c:a8:d6:29:5d:65:99:af:32:fe:
        39:41:49:4c:00:38:bf:9c:65:90:98:c5:25:97:07:3b:53:c7:
        05:85:5b:cc:13:e0:ee:fd:a1:c9:01:2f:13:0f:70:30:bb:86:
        ec:f6:35:16:6e:d2:f7:9c:aa:eb:2f:10:51:76:05:8d:31:bc:
        f8:fc:4b:f8:c5:b8:dd:67:eb:c7:13:2e:30:be:11:93:a3:2e:
        d1:06:88:97:04:5c:3a:31:ac:de:24:bd:ab:91:f2:b6:1d:65:
        91:cc:84:2c:9f:e5:3d:53:ce:fc:b2:79:50:3d:2c:52:55:0e:
        74:7d:cf:18:59:2c:8a:f6:c8:d5:1a:64:c5:9b:64:bc:f7:ef:
        c1:44:e3:8e:c2:8c:a5:ff:c1:02:1d:69:85:cb:82:81:5f:75:
        46:5d:41:d1:38:ef:e5:23:cd:07:1f:4f:37:aa:2c:72:84:59:
        c2:36:2e:5a
-----BEGIN CERTIFICATE-----
MIIDQzCCAiugAwIBAgIRAPQxytAsJYbwmGXOObLCnUMwDQYJKoZIhvcNAQELBQAw
DjEMMAoGA1UEAwwDVlBOMB4XDTI1MDQzMDEyMzkzN1oXDTI3MDgwMzEyMzkzN1ow
DzENMAsGA1UEAwwEbHVpczCCASIwDQYJKoZIhvcNAQEBBQADggEPADCCAQoCggEB
ALsDmypskcFT1jTNZ6txOTun/S1SbZfWkJNXfvKoikL85fxGevvcgSyDIvR297j4
4H2fPKuVD+h9yli/vqydmGTuaHmTUaLrhX7v16QBncBWwQl+oQi2tN+ycJ5DNxVU
kW6fpxZ6TTpSoLCl28SzEdHXe4JsPhRTfXtXIfimnkR94Ktprnj29iDaEBYyEuRY
0Ps5W47kkud4ewT0/PEdMIldDwQqk+ZHOa2YIOXDSHRCrFDtTtLiH8Oc4AnurAHU
IzdDV5IUkVJkaAnxHAB5p6cxXGRvMLIaSY5FefapbD1mE4n00gMFVf3n9yFapDHm
AaY1fXl8uVPHqGiTyJEnOoUCAwEAAaOBmjCBlzAJBgNVHRMEAjAAMB0GA1UdDgQW
BBSDbMo4g7tZoLObU0ZTw+gkOYH4GjBJBgNVHSMEQjBAgBRs+UAIxmkNEO5nbdIi
XI05RxU3qqESpBAwDjEMMAoGA1UEAwwDVlBOghQQLVZMPSw7LxfiEyez1u2gj1Xr
eDATBgNVHSUEDDAKBggrBgEFBQcDAjALBgNVHQ8EBAMCB4AwDQYJKoZIhvcNAQEL
BQADggEBAHqsPMENqK5wOE8yvLWsrOT21b9rPnAhux7NlxrNHK+A0JJGkPCURjR8
Ib71ZPXw6z1fcCkqr9JtsXil1d9T6kwNwZW0UDj5srySQnLXDQJQPKjWKV1lma8y
/jlBSUwAOL+cZZCYxSWXBztTxwWFW8wT4O79ockBLxMPcDC7huz2NRZu0vecqusv
EFF2BY0xvPj8S/jFuN1n68cTLjC+EZOjLtEGiJcEXDoxrN4kvauR8rYdZZHMhCyf
5T1TzvyyeVA9LFJVDnR9zxhZLIr2yNUaZMWbZLz378FE447CjKX/wQIdaYXLgoFf
dUZdQdE47+UjzQcfTzeqLHKEWcI2Llo=
-----END CERTIFICATE-----
