Certificate:
    Data:
        Version: 3 (0x2)
        Serial Number:
            bc:14:68:d5:7a:68:ce:0f:8f:60:fc:7f:fa:62:49:81
        Signature Algorithm: sha256WithRSAEncryption
        Issuer: CN=VPN
        Validity
            Not Before: May 23 16:19:28 2025 GMT
            Not After : Aug 26 16:19:28 2027 GMT
        Subject: CN=username-0
        Subject Public Key Info:
            Public Key Algorithm: rsaEncryption
                Public-Key: (2048 bit)
                Modulus:
                    00:d6:21:6a:f2:d7:e4:ad:b2:d4:d8:1d:7c:fc:04:
                    f7:fb:0b:05:63:dc:e5:dd:78:de:8a:d6:4a:d8:04:
                    bb:bd:af:1a:1a:31:2f:39:9e:4f:ac:b2:94:67:3a:
                    48:59:f5:31:41:00:a8:f2:8f:ed:fe:05:aa:09:f4:
                    d3:44:e3:d5:1a:24:41:50:ec:8a:60:cb:0e:e6:87:
                    9a:9c:f2:a3:1e:fc:36:04:8e:78:27:3c:1f:d4:b5:
                    1f:50:f7:f3:45:5b:22:d1:7d:c4:b9:4d:7f:05:4c:
                    e9:ea:49:ce:f1:1b:d4:27:e8:db:7f:ba:ed:e0:10:
                    ab:96:4d:d1:38:e4:56:49:e0:81:3d:d5:ad:2c:d8:
                    c9:a7:f6:e5:d8:b5:25:cd:25:c5:38:b5:0a:78:09:
                    9d:a1:a5:d5:6e:90:ec:f3:5f:db:aa:80:0b:56:57:
                    f7:d8:76:79:b5:0c:2a:1d:ae:5c:2a:04:17:85:bc:
                    a9:c6:07:94:5f:dd:69:f3:cf:54:ff:b2:b0:8d:2e:
                    e5:e8:98:35:c9:0c:80:7e:55:9d:4e:e1:57:00:82:
                    66:6b:f7:af:c5:60:4a:49:e5:63:f1:31:29:f2:e5:
                    e7:76:d1:19:6a:6d:c3:4e:3f:b0:a9:a1:19:64:e0:
                    f3:30:28:6e:c4:c5:0b:d3:6e:35:9c:a7:72:1b:fe:
                    b2:9b
                Exponent: 65537 (0x10001)
        X509v3 extensions:
            X509v3 Basic Constraints: 
                CA:FALSE
            X509v3 Subject Key Identifier: 
                FF:BE:77:8A:C5:AC:E5:BA:EE:74:77:B0:F2:B8:85:75:47:57:25:00
            X509v3 Authority Key Identifier: 
                keyid:6C:F9:40:08:C6:69:0D:10:EE:67:6D:D2:22:5C:8D:39:47:15:37:AA
                DirName:/CN=VPN
                serial:10:2D:56:4C:3D:2C:3B:2F:17:E2:13:27:B3:D6:ED:A0:8F:55:EB:78
            X509v3 Extended Key Usage: 
                TLS Web Client Authentication
            X509v3 Key Usage: 
                Digital Signature
    Signature Algorithm: sha256WithRSAEncryption
    Signature Value:
        6f:b4:12:71:ba:4a:8e:78:af:82:9b:fd:1d:19:52:6d:b6:89:
        81:bb:52:bd:3e:18:ee:4c:be:4a:8c:4a:3b:b9:94:00:10:83:
        91:bc:52:81:d8:85:bd:fb:b1:6f:70:46:a1:76:3b:f6:ec:4c:
        d2:00:07:e0:a1:8a:1d:94:30:c7:fc:4e:41:3a:8f:4a:67:15:
        67:5d:35:de:90:0e:f2:10:05:36:34:05:98:94:51:c6:e8:e7:
        80:4e:ea:d6:c8:7e:03:cf:ed:28:87:75:74:9b:85:b7:b1:17:
        9a:b7:db:f8:6d:4e:81:b0:09:ed:36:66:0c:2f:53:d3:2a:82:
        cb:42:c1:51:a5:23:22:c1:08:0c:30:44:91:fe:70:c8:a7:e5:
        31:21:f7:12:9f:59:4d:93:d9:3d:e2:e9:9e:a8:46:cd:ee:2d:
        ef:92:ac:b3:13:f7:7b:80:5f:3f:28:b0:bf:71:eb:2c:61:df:
        79:10:4f:b5:95:40:11:8f:3d:78:6c:62:5b:11:78:4e:15:b6:
        d9:b6:a8:0f:ed:a3:cf:e7:47:79:1c:a0:24:6e:1e:28:38:30:
        6f:80:56:48:14:24:3f:aa:8f:8b:85:11:0d:29:61:6a:14:8e:
        c3:ea:15:89:38:11:3b:30:50:80:46:6f:3a:83:29:1c:9a:fa:
        1b:5f:bd:5c
-----BEGIN CERTIFICATE-----
MIIDSTCCAjGgAwIBAgIRALwUaNV6aM4Pj2D8f/piSYEwDQYJKoZIhvcNAQELBQAw
DjEMMAoGA1UEAwwDVlBOMB4XDTI1MDUyMzE2MTkyOFoXDTI3MDgyNjE2MTkyOFow
FTETMBEGA1UEAwwKdXNlcm5hbWUtMDCCASIwDQYJKoZIhvcNAQEBBQADggEPADCC
AQoCggEBANYhavLX5K2y1NgdfPwE9/sLBWPc5d143orWStgEu72vGhoxLzmeT6yy
lGc6SFn1MUEAqPKP7f4Fqgn000Tj1RokQVDsimDLDuaHmpzyox78NgSOeCc8H9S1
H1D380VbItF9xLlNfwVM6epJzvEb1Cfo23+67eAQq5ZN0TjkVknggT3VrSzYyaf2
5di1Jc0lxTi1CngJnaGl1W6Q7PNf26qAC1ZX99h2ebUMKh2uXCoEF4W8qcYHlF/d
afPPVP+ysI0u5eiYNckMgH5VnU7hVwCCZmv3r8VgSknlY/ExKfLl53bRGWptw04/
sKmhGWTg8zAobsTFC9NuNZynchv+spsCAwEAAaOBmjCBlzAJBgNVHRMEAjAAMB0G
A1UdDgQWBBT/vneKxazluu50d7DyuIV1R1clADBJBgNVHSMEQjBAgBRs+UAIxmkN
EO5nbdIiXI05RxU3qqESpBAwDjEMMAoGA1UEAwwDVlBOghQQLVZMPSw7LxfiEyez
1u2gj1XreDATBgNVHSUEDDAKBggrBgEFBQcDAjALBgNVHQ8EBAMCB4AwDQYJKoZI
hvcNAQELBQADggEBAG+0EnG6So54r4Kb/R0ZUm22iYG7Ur0+GO5MvkqMSju5lAAQ
g5G8UoHYhb37sW9wRqF2O/bsTNIAB+Chih2UMMf8TkE6j0pnFWddNd6QDvIQBTY0
BZiUUcbo54BO6tbIfgPP7SiHdXSbhbexF5q32/htToGwCe02ZgwvU9MqgstCwVGl
IyLBCAwwRJH+cMin5TEh9xKfWU2T2T3i6Z6oRs3uLe+SrLMT93uAXz8osL9x6yxh
33kQT7WVQBGPPXhsYlsReE4Vttm2qA/to8/nR3kcoCRuHig4MG+AVkgUJD+qj4uF
EQ0pYWoUjsPqFYk4ETswUIBGbzqDKRya+htfvVw=
-----END CERTIFICATE-----
