Certificate:
    Data:
        Version: 3 (0x2)
        Serial Number:
            88:ae:9f:0b:7b:e0:0e:95:bf:8c:7f:76:75:1a:2a:18
        Signature Algorithm: sha256WithRSAEncryption
        Issuer: CN=VPN
        Validity
            Not Before: May  8 17:20:46 2025 GMT
            Not After : Aug 11 17:20:46 2027 GMT
        Subject: CN=vpn
        Subject Public Key Info:
            Public Key Algorithm: rsaEncryption
                Public-Key: (2048 bit)
                Modulus:
                    00:f2:1d:a1:dd:5b:9f:a6:c6:e3:17:03:52:3c:e2:
                    af:49:7f:9c:79:e5:8c:95:c1:ca:fd:a4:0e:c1:90:
                    27:5a:ff:18:8f:a1:30:56:0c:4c:10:e8:ee:b6:26:
                    c8:2e:78:ae:14:b9:f0:5c:c6:4d:5a:82:b7:4a:fb:
                    b5:61:e6:64:9f:de:ac:de:be:c1:4c:a8:de:f8:33:
                    64:74:b1:cb:ba:00:8e:c9:9e:29:55:36:02:ac:03:
                    f4:9d:62:c5:f2:df:33:d1:16:b2:61:25:6b:2f:44:
                    3b:f8:4f:2c:fc:93:ae:ce:34:b8:6d:33:e4:19:3d:
                    7d:d0:08:76:c4:9a:84:6a:c6:e1:17:ad:a3:3b:75:
                    40:95:74:cf:a5:c4:73:a1:ed:06:84:d8:d1:ae:0e:
                    84:2f:8b:12:03:17:40:18:cc:6e:d9:be:ad:ca:2c:
                    6f:98:c4:2f:60:dd:3f:95:05:c3:38:c3:c1:fe:49:
                    12:6d:69:8d:aa:49:52:0e:6a:19:b5:38:a8:45:cb:
                    e8:8a:4f:39:27:33:2a:5f:85:70:51:21:3e:16:8a:
                    74:04:9a:0f:cc:c4:b0:9d:28:c6:17:31:2b:82:7f:
                    7b:65:26:e7:ca:72:79:60:26:09:84:72:b9:78:57:
                    4e:5f:d8:0d:19:2f:6f:03:08:af:a3:a0:4c:29:e7:
                    49:57
                Exponent: 65537 (0x10001)
        X509v3 extensions:
            X509v3 Basic Constraints: 
                CA:FALSE
            X509v3 Subject Key Identifier: 
                38:C0:42:5A:D9:0F:05:50:0B:67:7C:4E:E9:3E:AF:4D:36:E8:3A:8E
            X509v3 Authority Key Identifier: 
                keyid:6C:F9:40:08:C6:69:0D:10:EE:67:6D:D2:22:5C:8D:39:47:15:37:AA
                DirName:/CN=VPN
                serial:10:2D:56:4C:3D:2C:3B:2F:17:E2:13:27:B3:D6:ED:A0:8F:55:EB:78
            X509v3 Extended Key Usage: 
                TLS Web Client Authentication
            X509v3 Key Usage: 
                Digital Signature
    Signature Algorithm: sha256WithRSAEncryption
    Signature Value:
        08:e7:a9:83:ce:0d:c1:b7:4b:5a:38:c7:e1:12:52:b6:66:fe:
        2c:30:d0:0f:a4:af:c5:64:0c:6c:b9:79:00:88:4c:b4:78:19:
        ea:34:2f:ea:c2:13:89:29:01:ec:24:9f:e9:a9:9f:64:6c:5f:
        8a:a0:4c:47:17:e5:62:38:fa:e9:50:71:f2:ee:84:fd:00:26:
        87:bf:d4:2b:08:fd:c9:e1:b0:35:e6:9b:52:98:e3:3a:9a:f3:
        4e:60:1a:02:8b:70:51:09:14:4e:77:1c:08:27:f4:65:a0:9b:
        18:9a:84:e7:57:2c:14:2d:97:6d:7c:23:4e:d1:56:0d:80:94:
        4c:fb:02:53:46:8e:2c:d9:65:25:6b:79:75:59:84:e2:44:bb:
        2f:a5:be:6b:32:7f:e3:12:0e:77:b4:d0:eb:cc:91:30:a3:cb:
        9e:8c:58:73:16:ef:d4:67:c6:43:4a:ef:3d:e5:b7:20:3d:3d:
        1b:2f:36:7e:fb:ae:26:6c:a6:3c:50:a8:a9:a5:99:e9:d5:70:
        63:ce:81:e6:b7:38:2b:e7:e4:00:de:bb:12:e6:5c:89:92:b6:
        5b:aa:9d:7a:76:6a:e7:10:94:79:4b:f2:e5:c2:87:6e:40:87:
        e0:ec:45:dc:c9:14:59:f4:50:31:39:2b:42:f5:65:3c:de:97:
        cb:64:39:aa
-----BEGIN CERTIFICATE-----
MIIDQjCCAiqgAwIBAgIRAIiunwt74A6Vv4x/dnUaKhgwDQYJKoZIhvcNAQELBQAw
DjEMMAoGA1UEAwwDVlBOMB4XDTI1MDUwODE3MjA0NloXDTI3MDgxMTE3MjA0Nlow
DjEMMAoGA1UEAwwDdnBuMIIBIjANBgkqhkiG9w0BAQEFAAOCAQ8AMIIBCgKCAQEA
8h2h3VufpsbjFwNSPOKvSX+ceeWMlcHK/aQOwZAnWv8Yj6EwVgxMEOjutibILniu
FLnwXMZNWoK3Svu1YeZkn96s3r7BTKje+DNkdLHLugCOyZ4pVTYCrAP0nWLF8t8z
0RayYSVrL0Q7+E8s/JOuzjS4bTPkGT190Ah2xJqEasbhF62jO3VAlXTPpcRzoe0G
hNjRrg6EL4sSAxdAGMxu2b6tyixvmMQvYN0/lQXDOMPB/kkSbWmNqklSDmoZtTio
Rcvoik85JzMqX4VwUSE+Fop0BJoPzMSwnSjGFzErgn97ZSbnynJ5YCYJhHK5eFdO
X9gNGS9vAwivo6BMKedJVwIDAQABo4GaMIGXMAkGA1UdEwQCMAAwHQYDVR0OBBYE
FDjAQlrZDwVQC2d8Tuk+r0026DqOMEkGA1UdIwRCMECAFGz5QAjGaQ0Q7mdt0iJc
jTlHFTeqoRKkEDAOMQwwCgYDVQQDDANWUE6CFBAtVkw9LDsvF+ITJ7PW7aCPVet4
MBMGA1UdJQQMMAoGCCsGAQUFBwMCMAsGA1UdDwQEAwIHgDANBgkqhkiG9w0BAQsF
AAOCAQEACOepg84NwbdLWjjH4RJStmb+LDDQD6SvxWQMbLl5AIhMtHgZ6jQv6sIT
iSkB7CSf6amfZGxfiqBMRxflYjj66VBx8u6E/QAmh7/UKwj9yeGwNeabUpjjOprz
TmAaAotwUQkUTnccCCf0ZaCbGJqE51csFC2XbXwjTtFWDYCUTPsCU0aOLNllJWt5
dVmE4kS7L6W+azJ/4xIOd7TQ68yRMKPLnoxYcxbv1GfGQ0rvPeW3ID09Gy82fvuu
JmymPFCoqaWZ6dVwY86B5rc4K+fkAN67EuZciZK2W6qdenZq5xCUeUvy5cKHbkCH
4OxF3MkUWfRQMTkrQvVlPN6Xy2Q5qg==
-----END CERTIFICATE-----
